 NekosifyD3D

 Timestamp is 69575547 (Fri Jan  2 13:19:03 2026)

 Preferred load address is 0000000180000000

 Start         Length     Name                   Class
 0001:00000000 00000020H .text$di                CODE
 0001:00000020 0000f970H .text$mn                CODE
 0001:0000f990 00000060H .text$mn$00             CODE
 0001:0000f9f0 00000b10H .text$mn$21             CODE
 0001:00010500 000004b0H .text$x                 CODE
 0001:000109b0 00000073H .text$yd                CODE
 0002:00000000 00000318H .idata$5                DATA
 0002:00000318 00000038H .00cfg                  DATA
 0002:00000350 00000008H .CRT$XCA                DATA
 0002:00000358 00000010H .CRT$XCU                DATA
 0002:00000368 00000008H .CRT$XCZ                DATA
 0002:00000370 00000008H .CRT$XIA                DATA
 0002:00000378 00000018H .CRT$XIC                DATA
 0002:00000390 00000008H .CRT$XIZ                DATA
 0002:00000398 00000008H .CRT$XPA                DATA
 0002:000003a0 00000010H .CRT$XPX                DATA
 0002:000003b0 00000008H .CRT$XPXA               DATA
 0002:000003b8 00000008H .CRT$XPZ                DATA
 0002:000003c0 00000008H .CRT$XTA                DATA
 0002:000003c8 00000008H .CRT$XTZ                DATA
 0002:000003d0 00000000H .gehcont$y              DATA
 0002:000003d0 00000000H .gfids$y                DATA
 0002:000003d0 00007ce0H .rdata                  DATA
 0002:000080b0 000001d0H .rdata$00               DATA
 0002:00008280 00000000H .rdata$CastGuardVftablesA DATA
 0002:00008280 00000000H .rdata$CastGuardVftablesC DATA
 0002:00008280 0000037cH .rdata$r                DATA
 0002:000085fc 000000c8H .rdata$voltmd           DATA
 0002:000086c4 00000424H .rdata$zzzdbg           DATA
 0002:00008ae8 00000008H .rtc$IAA                DATA
 0002:00008af0 00000008H .rtc$IZZ                DATA
 0002:00008af8 00000008H .rtc$TAA                DATA
 0002:00008b00 00000008H .rtc$TZZ                DATA
 0002:00008b08 00001248H .xdata                  DATA
 0002:00009d50 000001e0H .xdata$x                DATA
 0002:00009f30 0000004cH .edata                  DATA
 0002:00009f7c 00000064H .idata$2                DATA
 0002:00009fe0 00000018H .idata$3                DATA
 0002:00009ff8 00000318H .idata$4                DATA
 0002:0000a310 000006f2H .idata$6                DATA
 0003:00000000 00000c80H .data                   DATA
 0003:00000c80 000000f8H .data$r                 DATA
 0003:00000d78 00000028H .data$rs                DATA
 0003:00000da0 00000b78H .bss                    DATA
 0004:00000000 0000126cH .pdata                  DATA
 0005:00000000 00000100H .fptable                DATA
 0006:00000000 00000060H .rsrc$01                DATA
 0006:00000060 00000180H .rsrc$02                DATA

  Address         Publics by Value              Rva+Base               Lib:Object

 0000:00000000       __AbsoluteZero             0000000000000000     <absolute>
 0000:00000000       ___safe_se_handler_count   0000000000000000     <absolute>
 0000:00000000       ___safe_se_handler_table   0000000000000000     <absolute>
 0000:00000000       __arm64x_extra_rfe_table   0000000000000000     <absolute>
 0000:00000000       __arm64x_extra_rfe_table_size 0000000000000000     <absolute>
 0000:00000000       __arm64x_native_entrypoint 0000000000000000     <absolute>
 0000:00000000       __arm64x_redirection_metadata 0000000000000000     <absolute>
 0000:00000000       __arm64x_redirection_metadata_count 0000000000000000     <absolute>
 0000:00000000       __dynamic_value_reloc_table 0000000000000000     <absolute>
 0000:00000000       __enclave_config           0000000000000000     <absolute>
 0000:00000000       __guard_check_icall_a64n_fptr 0000000000000000     <absolute>
 0000:00000000       __guard_eh_cont_count      0000000000000000     <absolute>
 0000:00000000       __guard_eh_cont_table      0000000000000000     <absolute>
 0000:00000000       __guard_fids_count         0000000000000000     <absolute>
 0000:00000000       __guard_fids_table         0000000000000000     <absolute>
 0000:00000000       __guard_iat_count          0000000000000000     <absolute>
 0000:00000000       __guard_iat_table          0000000000000000     <absolute>
 0000:00000000       __guard_longjmp_count      0000000000000000     <absolute>
 0000:00000000       __guard_longjmp_table      0000000000000000     <absolute>
 0000:00000000       __hybrid_auxiliary_delayload_iat 0000000000000000     <absolute>
 0000:00000000       __hybrid_auxiliary_delayload_iat_copy 0000000000000000     <absolute>
 0000:00000000       __hybrid_auxiliary_iat     0000000000000000     <absolute>
 0000:00000000       __hybrid_auxiliary_iat_copy 0000000000000000     <absolute>
 0000:00000000       __hybrid_code_map          0000000000000000     <absolute>
 0000:00000000       __hybrid_code_map_count    0000000000000000     <absolute>
 0000:00000000       __hybrid_image_info_bitfield 0000000000000000     <absolute>
 0000:00000000       __x64_code_ranges_to_entry_points 0000000000000000     <absolute>
 0000:00000000       __x64_code_ranges_to_entry_points_count 0000000000000000     <absolute>
 0000:00000100       __guard_flags              0000000000000100     <absolute>
 0000:00000000       __ImageBase                0000000180000000     <linker-defined>
 0001:00000020       ??0exception@std@@QEAA@AEBV01@@Z 0000000180001020 f i main.obj
 0001:00000060       ?what@exception@std@@UEBAPEBDXZ 0000000180001060 f i main.obj
 0001:00000080       ??_Ebad_alloc@std@@UEAAPEAXI@Z 0000000180001080 f i * CIL library *:* CIL module *
 0001:00000080       ??_Ebad_array_new_length@std@@UEAAPEAXI@Z 0000000180001080 f i * CIL library *:* CIL module *
 0001:00000080       ??_Ebad_exception@std@@UEAAPEAXI@Z 0000000180001080 f i libvcruntime:frame.obj
 0001:00000080       ??_Eexception@std@@UEAAPEAXI@Z 0000000180001080 f i * CIL library *:* CIL module *
 0001:00000080       ??_Elength_error@std@@UEAAPEAXI@Z 0000000180001080 f i libcpmt:xthrow.obj
 0001:00000080       ??_Elogic_error@std@@UEAAPEAXI@Z 0000000180001080 f i libcpmt:xthrow.obj
 0001:00000080       ??_Gbad_alloc@std@@UEAAPEAXI@Z 0000000180001080 f i main.obj
 0001:00000080       ??_Gbad_array_new_length@std@@UEAAPEAXI@Z 0000000180001080 f i main.obj
 0001:00000080       ??_Gbad_exception@std@@UEAAPEAXI@Z 0000000180001080 f i libvcruntime:frame.obj
 0001:00000080       ??_Gexception@std@@UEAAPEAXI@Z 0000000180001080 f i main.obj
 0001:00000080       ??_Glength_error@std@@UEAAPEAXI@Z 0000000180001080 f i libcpmt:xthrow.obj
 0001:00000080       ??_Glogic_error@std@@UEAAPEAXI@Z 0000000180001080 f i libcpmt:xthrow.obj
 0001:000000d0       ??1bad_alloc@std@@UEAA@XZ  00000001800010d0 f i main.obj
 0001:000000d0       ??1bad_array_new_length@std@@UEAA@XZ 00000001800010d0 f i main.obj
 0001:000000d0       ??1bad_exception@std@@UEAA@XZ 00000001800010d0 f i libvcruntime:frame.obj
 0001:000000d0       ??1length_error@std@@UEAA@XZ 00000001800010d0 f i libcpmt:xthrow.obj
 0001:000000f0       ??0bad_array_new_length@std@@QEAA@XZ 00000001800010f0 f i main.obj
 0001:00000120       ?_Throw_bad_array_new_length@std@@YAXXZ 0000000180001120 f i main.obj
 0001:00000120       ?__scrt_throw_std_bad_array_new_length@@YAXXZ 0000000180001120 f i LIBCMT:throw_bad_alloc.obj
 0001:00000140       ??0bad_array_new_length@std@@QEAA@AEBV01@@Z 0000000180001140 f i main.obj
 0001:00000180       ??0bad_alloc@std@@QEAA@AEBV01@@Z 0000000180001180 f i main.obj
 0001:000001c0       ?Present_hook@@YAJPEAUIDirect3DDevice9@@PEBUtagRECT@@1PEAUHWND__@@PEBU_RGNDATA@@I@Z 00000001800011c0 f   main.obj
 0001:00000610       ?DrawIndexedPrimitive_hook@@YAJPEAUIDirect3DDevice9@@W4_D3DPRIMITIVETYPE@@HIIII@Z 0000000180001610 f   main.obj
 0001:00000970       ?THR@@YAKPEAX@Z            0000000180001970 f   main.obj
 0001:00000c20       NextHook                   0000000180001c20 f   main.obj
 0001:00000c40       DllMain                    0000000180001c40 f   main.obj
 0001:00000c80       ??$_Emplace_reallocate@AEBQEAUModelInfo_t@@@?$vector@PEAUModelInfo_t@@V?$allocator@PEAUModelInfo_t@@@std@@@std@@AEAAPEAPEAUModelInfo_t@@QEAPEAU2@AEBQEAU2@@Z 0000000180001c80 f i main.obj
 0001:00000e40       ?_Xlength@?$vector@PEAUModelInfo_t@@V?$allocator@PEAUModelInfo_t@@@std@@@std@@CAXXZ 0000000180001e40 f i main.obj
 0001:000010d0       FreeBuffer                 00000001800020d0 f   buffer.obj
 0001:00001150       hde64_disasm               0000000180002150 f   hde64.obj
 0001:00001e70       MH_CreateHook              0000000180002e70 f   hook.obj
 0001:00002150       CreateTrampolineFunction   0000000180003150 f   trampoline.obj
 0001:00002574       ??0bad_alloc@std@@QEAA@XZ  0000000180003574 f i libcpmt:xthrow.obj
 0001:00002598       ??0length_error@std@@QEAA@AEBV01@@Z 0000000180003598 f i libcpmt:xthrow.obj
 0001:000025d4       ??0length_error@std@@QEAA@PEBD@Z 00000001800035d4 f i libcpmt:xthrow.obj
 0001:0000261c       ??0logic_error@std@@QEAA@AEBV01@@Z 000000018000361c f i libcpmt:xthrow.obj
 0001:00002658       ?_Xlength_error@std@@YAXPEBD@Z 0000000180003658 f   libcpmt:xthrow.obj
 0001:00002690       __security_check_cookie    0000000180003690 f   LIBCMT:amdsecgs.obj
 0001:000026b0       ??2@YAPEAX_K@Z             00000001800036b0 f   LIBCMT:new_scalar.obj
 0001:000026ec       __scrt_acquire_startup_lock 00000001800036ec f   LIBCMT:utility.obj
 0001:00002728       __scrt_dllmain_after_initialize_c 0000000180003728 f   LIBCMT:utility.obj
 0001:0000275c       __scrt_dllmain_before_initialize_c 000000018000375c f   LIBCMT:utility.obj
 0001:00002774       __scrt_dllmain_crt_thread_attach 0000000180003774 f   LIBCMT:utility.obj
 0001:0000279c       __scrt_dllmain_crt_thread_detach 000000018000379c f   LIBCMT:utility.obj
 0001:000027b4       __scrt_dllmain_exception_filter 00000001800037b4 f   LIBCMT:utility.obj
 0001:00002814       __scrt_dllmain_uninitialize_c 0000000180003814 f   LIBCMT:utility.obj
 0001:00002844       __scrt_dllmain_uninitialize_critical 0000000180003844 f   LIBCMT:utility.obj
 0001:00002858       __scrt_initialize_crt      0000000180003858 f   LIBCMT:utility.obj
 0001:00002894       __scrt_initialize_onexit_tables 0000000180003894 f   LIBCMT:utility.obj
 0001:00002920       __scrt_is_nonwritable_in_current_image 0000000180003920 f   LIBCMT:utility.obj
 0001:000029b8       __scrt_release_startup_lock 00000001800039b8 f   LIBCMT:utility.obj
 0001:000029dc       __scrt_uninitialize_crt    00000001800039dc f   LIBCMT:utility.obj
 0001:00002a08       _onexit                    0000000180003a08 f   LIBCMT:utility.obj
 0001:00002a44       atexit                     0000000180003a44 f   LIBCMT:utility.obj
 0001:00002a5c       ??3@YAXPEAX_K@Z            0000000180003a5c f   LIBCMT:delete_scalar_size.obj
 0001:00002a64       ??_Etype_info@@UEAAPEAXI@Z 0000000180003a64 f i LIBCMT:std_type_info_static.obj
 0001:00002a64       ??_Gtype_info@@UEAAPEAXI@Z 0000000180003a64 f i LIBCMT:std_type_info_static.obj
 0001:00002da4       _DllMainCRTStartup         0000000180003da4 f   LIBCMT:dll_dllmain.obj
 0001:00002de4       __report_gsfailure         0000000180003de4 f   LIBCMT:gs_report.obj
 0001:00002dec       ?__scrt_throw_std_bad_alloc@@YAXXZ 0000000180003dec f   LIBCMT:throw_bad_alloc.obj
 0001:00002e0c       __isa_available_init       0000000180003e0c f   LIBCMT:cpu_disp.obj
 0001:000030a8       _get_startup_argv_mode     00000001800040a8 f   LIBCMT:argv_mode.obj
 0001:000030b0       __scrt_is_ucrt_dll_in_use  00000001800040b0 f   LIBCMT:ucrt_detection.obj
 0001:000030bc       __crt_debugger_hook        00000001800040bc f   LIBCMT:utility_desktop.obj
 0001:000030c8       __scrt_fastfail            00000001800040c8 f   LIBCMT:utility_desktop.obj
 0001:000030d0       _guard_check_icall_nop     00000001800040d0 f i LIBCMT:guard_support.obj
 0001:000030d4       ??3@YAXPEAX@Z              00000001800040d4 f   LIBCMT:delete_scalar.obj
 0001:000030dc       __security_init_cookie     00000001800040dc f   LIBCMT:gs_support.obj
 0001:0000318c       ?__scrt_initialize_type_info@@YAXXZ 000000018000418c f   LIBCMT:tncleanup.obj
 0001:0000319c       ?__scrt_uninitialize_type_info@@YAXXZ 000000018000419c f   LIBCMT:tncleanup.obj
 0001:000031a8       __local_stdio_printf_options 00000001800041a8 f i LIBCMT:default_local_stdio_options.obj
 0001:000031b0       __local_stdio_scanf_options 00000001800041b0 f i LIBCMT:default_local_stdio_options.obj
 0001:000031b8       __scrt_initialize_default_local_stdio_options 00000001800041b8 f   LIBCMT:default_local_stdio_options.obj
 0001:000031d4       __scrt_get_dyn_tls_init_callback 00000001800041d4 f   LIBCMT:dyn_tls_init.obj
 0001:000031dc       _RTC_Initialize            00000001800041dc f   LIBCMT:initsect.obj
 0001:00003218       _RTC_Terminate             0000000180004218 f   LIBCMT:initsect.obj
 0001:00003260       ??$_CallSETranslator@V__FrameHandler3@@@@YAHPEAUEHExceptionRecord@@PEA_KPEAU_CONTEXT@@PEAU_xDISPATCHER_CONTEXT@@PEBU_s_FuncInfo@@K1H@Z 0000000180004260 f i libvcruntime:risctrnsctrl.obj
 0001:000032b4       ?CatchTryBlock@__FrameHandler3@@SAPEBU_s_TryBlockMapEntry@@PEBU_s_FuncInfo@@H@Z 00000001800042b4 f   libvcruntime:risctrnsctrl.obj
 0001:00003308       ?ExecutionInCatch@__FrameHandler3@@SA_NPEAU_xDISPATCHER_CONTEXT@@PEBU_s_FuncInfo@@@Z 0000000180004308 f   libvcruntime:risctrnsctrl.obj
 0001:00003334       ?FrameUnwindToEmptyState@__FrameHandler3@@SAXPEA_KPEAU_xDISPATCHER_CONTEXT@@PEBU_s_FuncInfo@@@Z 0000000180004334 f   libvcruntime:risctrnsctrl.obj
 0001:00003398       ?GetEstablisherFrame@__FrameHandler3@@SAPEA_KPEA_KPEAU_xDISPATCHER_CONTEXT@@PEBU_s_FuncInfo@@0@Z 0000000180004398 f   libvcruntime:risctrnsctrl.obj
 0001:00003478       ?GetRangeOfTrysToCheck@__FrameHandler3@@SA?AU?$pair@Viterator@TryBlockMap@__FrameHandler3@@V123@@std@@AEAVTryBlockMap@1@HPEAU_xDISPATCHER_CONTEXT@@PEBU_s_FuncInfo@@H@Z 0000000180004478 f   libvcruntime:risctrnsctrl.obj
 0001:000035b4       ?UnwindNestedFrames@__FrameHandler3@@SAXPEA_KPEAUEHExceptionRecord@@PEAU_CONTEXT@@0PEAXPEBU_s_FuncInfo@@HHPEBU_s_HandlerType@@PEAU_xDISPATCHER_CONTEXT@@E@Z 00000001800045b4 f   libvcruntime:risctrnsctrl.obj
 0001:000036b8       _CreateFrameInfo           00000001800046b8 f   libvcruntime:risctrnsctrl.obj
 0001:000036f4       _FindAndUnlinkFrame        00000001800046f4 f   libvcruntime:risctrnsctrl.obj
 0001:00003748       _GetImageBase              0000000180004748 f   libvcruntime:risctrnsctrl.obj
 0001:0000375c       _GetThrowImageBase         000000018000475c f   libvcruntime:risctrnsctrl.obj
 0001:00003770       _SetImageBase              0000000180004770 f   libvcruntime:risctrnsctrl.obj
 0001:00003788       _SetThrowImageBase         0000000180004788 f   libvcruntime:risctrnsctrl.obj
 0001:000037a0       __CxxFrameHandler3         00000001800047a0 f   libvcruntime:risctrnsctrl.obj
 0001:00003828       __std_exception_copy       0000000180004828 f   libvcruntime:std_exception.obj
 0001:000038b0       __std_exception_destroy    00000001800048b0 f   libvcruntime:std_exception.obj
 0001:000038d8       __DestructExceptionObject  00000001800048d8 f   libvcruntime:ehhelpers.obj
 0001:00003948       ?_CallMemberFunction0@@YAXQEAX0@Z 0000000180004948 f i libvcruntime:ehhelpers.obj
 0001:0000394c       _IsExceptionObjectToBeDestroyed 000000018000494c f   libvcruntime:ehhelpers.obj
 0001:0000397c       __AdjustPointer            000000018000497c f   libvcruntime:ehhelpers.obj
 0001:000039a4       __FrameUnwindFilter        00000001800049a4 f   libvcruntime:ehhelpers.obj
 0001:00003a0c       __std_terminate            0000000180004a0c f   libvcruntime:ehhelpers.obj
 0001:00003a18       _CxxThrowException         0000000180004a18 f   libvcruntime:throw.obj
 0001:00003ac0       __vcrt_initialize          0000000180004ac0 f   libvcruntime:initialization.obj
 0001:00003ae8       __vcrt_thread_attach       0000000180004ae8 f   libvcruntime:initialization.obj
 0001:00003afc       __vcrt_thread_detach       0000000180004afc f   libvcruntime:initialization.obj
 0001:00003b0c       __vcrt_uninitialize        0000000180004b0c f   libvcruntime:initialization.obj
 0001:00003b28       __vcrt_uninitialize_critical 0000000180004b28 f   libvcruntime:initialization.obj
 0001:00003b38       __C_specific_handler       0000000180004b38 f   libvcruntime:riscchandler.obj
 0001:00003d40       __std_type_info_compare    0000000180004d40 f   libvcruntime:std_type_info.obj
 0001:00003d68       __std_type_info_destroy_list 0000000180004d68 f   libvcruntime:std_type_info.obj
 0001:00003d94       __vcrt_freefls             0000000180004d94 f   libvcruntime:per_thread_data.obj
 0001:00003db4       __vcrt_freeptd_for_this_thread 0000000180004db4 f   libvcruntime:per_thread_data.obj
 0001:00003dfc       __vcrt_getptd              0000000180004dfc f   libvcruntime:per_thread_data.obj
 0001:00003e18       __vcrt_getptd_noexit       0000000180004e18 f   libvcruntime:per_thread_data.obj
 0001:00003ed8       __vcrt_initialize_ptd      0000000180004ed8 f   libvcruntime:per_thread_data.obj
 0001:00003f24       __vcrt_uninitialize_ptd    0000000180004f24 f   libvcruntime:per_thread_data.obj
 0001:00003f4c       ?GetCurrentState@__FrameHandler3@@SAHPEA_KPEAU_xDISPATCHER_CONTEXT@@PEBU_s_FuncInfo@@@Z 0000000180004f4c f   libvcruntime:ehstate.obj
 0001:00003f74       ?GetUnwindTryBlock@__FrameHandler3@@SAHPEA_KPEAU_xDISPATCHER_CONTEXT@@PEBU_s_FuncInfo@@@Z 0000000180004f74 f   libvcruntime:ehstate.obj
 0001:00003fa0       ?SetState@__FrameHandler3@@SAXPEA_KPEAU_xDISPATCHER_CONTEXT@@PEBU_s_FuncInfo@@H@Z 0000000180004fa0 f   libvcruntime:ehstate.obj
 0001:00003fac       ?SetUnwindTryBlock@__FrameHandler3@@SAXPEA_KPEAU_xDISPATCHER_CONTEXT@@PEBU_s_FuncInfo@@H@Z 0000000180004fac f   libvcruntime:ehstate.obj
 0001:00003fe8       ?StateFromControlPc@__FrameHandler3@@SAHPEBU_s_FuncInfo@@PEAU_xDISPATCHER_CONTEXT@@@Z 0000000180004fe8 f   libvcruntime:ehstate.obj
 0001:00003ff0       ?StateFromIp@__FrameHandler3@@SAHPEBU_s_FuncInfo@@PEAU_xDISPATCHER_CONTEXT@@_K@Z 0000000180004ff0 f   libvcruntime:ehstate.obj
 0001:00004ae0       ??$TypeMatchHelper@V__FrameHandler3@@@@YAHPEBU_s_HandlerType@@PEBU_s_CatchableType@@PEBU_s_ThrowInfo@@@Z 0000000180005ae0 f i libvcruntime:frame.obj
 0001:00004c10       ??$__InternalCxxFrameHandler@V__FrameHandler3@@@@YA?AW4_EXCEPTION_DISPOSITION@@PEAUEHExceptionRecord@@PEA_KPEAU_CONTEXT@@PEAU_xDISPATCHER_CONTEXT@@PEBU_s_FuncInfo@@H1E@Z 0000000180005c10 f i libvcruntime:frame.obj
 0001:00004e38       ??$__InternalCxxFrameHandlerWrapper@V__FrameHandler3@@@@YA?AW4_EXCEPTION_DISPOSITION@@PEAUEHExceptionRecord@@PEA_KPEAU_CONTEXT@@PEAU_xDISPATCHER_CONTEXT@@PEBU_s_FuncInfo@@H1E@Z 0000000180005e38 f i libvcruntime:frame.obj
 0001:00004e40       ??0bad_exception@std@@QEAA@AEBV01@@Z 0000000180005e40 f i libvcruntime:frame.obj
 0001:00004e7c       ??0bad_exception@std@@QEAA@XZ 0000000180005e7c f i libvcruntime:frame.obj
 0001:00004ea0       ?CxxCallCatchBlock@__FrameHandler3@@SAPEAXPEAU_EXCEPTION_RECORD@@@Z 0000000180005ea0 f   libvcruntime:frame.obj
 0001:00005134       ?FrameUnwindToState@__FrameHandler3@@SAXPEA_KPEAU_xDISPATCHER_CONTEXT@@PEBU_s_FuncInfo@@H@Z 0000000180006134 f   libvcruntime:frame.obj
 0001:000052d0       ?GetHandlerSearchState@__FrameHandler3@@SAHPEA_KPEAU_xDISPATCHER_CONTEXT@@PEBU_s_FuncInfo@@@Z 00000001800062d0 f i libvcruntime:frame.obj
 0001:000054d8       ?_CallMemberFunction1@@YAXQEAX00@Z 00000001800064d8 f i libvcruntime:frame.obj
 0001:000054e4       ?_CallMemberFunction2@@YAXQEAX00H@Z 00000001800064e4 f i libvcruntime:frame.obj
 0001:000054f4       __vcrt_initialize_locks    00000001800064f4 f   libvcruntime:locks.obj
 0001:0000553c       __vcrt_uninitialize_locks  000000018000653c f   libvcruntime:locks.obj
 0001:000055b0       _NLG_Notify                00000001800065b0 f   libvcruntime:notify.obj
 0001:000055d0       __NLG_Dispatch2            00000001800065d0 f   libvcruntime:notify.obj
 0001:000055e0       __NLG_Return2              00000001800065e0 f   libvcruntime:notify.obj
 0001:000055e4       __except_validate_context_record 00000001800065e4 f   libvcruntime:jbcxrval.obj
 0001:00005660       _CallSettingFrame          0000000180006660 f   libvcruntime:handlers.obj
 0001:000056a0       _callnewh                  00000001800066a0 f   libucrt:new_handler.obj
 0001:000056e0       __acrt_initialize_new_handler 00000001800066e0 f   libucrt:new_handler.obj
 0001:000056f0       _query_new_handler         00000001800066f0 f   libucrt:new_handler.obj
 0001:00005730       _set_new_handler           0000000180006730 f   libucrt:new_handler.obj
 0001:00005790       ?_set_new_handler@@YAP6AH_K@ZH@Z 0000000180006790 f   libucrt:new_handler.obj
 0001:000057a0       malloc                     00000001800067a0 f   libucrt:malloc.obj
 0001:000057a8       _seh_filter_dll            00000001800067a8 f   libucrt:exception_filter.obj
 0001:000057bc       _seh_filter_exe            00000001800067bc f   libucrt:exception_filter.obj
 0001:00005b98       __acrt_initialize_thread_local_exit_callback 0000000180006b98 f   libucrt:exit.obj
 0001:00005ba0       _cexit                     0000000180006ba0 f   libucrt:exit.obj
 0001:00005bb0       _exit                      0000000180006bb0 f   libucrt:exit.obj
 0001:00005bbc       _is_c_termination_complete 0000000180006bbc f   libucrt:exit.obj
 0001:00005d84       __acrt_allocate_buffer_for_argv 0000000180006d84 f   libucrt:argv_parsing.obj
 0001:00005de4       _configure_narrow_argv     0000000180006de4 f   libucrt:argv_parsing.obj
 0001:00006168       __dcrt_uninitialize_environments_nolock 0000000180007168 f   libucrt:environment_initialization.obj
 0001:000061ac       _initialize_narrow_environment 00000001800071ac f   libucrt:environment_initialization.obj
 0001:000064f4       _crt_atexit                00000001800074f4 f   libucrt:onexit.obj
 0001:00006504       _execute_onexit_table      0000000180007504 f   libucrt:onexit.obj
 0001:00006548       _initialize_onexit_table   0000000180007548 f   libucrt:onexit.obj
 0001:00006570       _register_onexit_function  0000000180007570 f   libucrt:onexit.obj
 0001:000065f0       __acrt_uninitialize_command_line 00000001800075f0 f   libucrt:argv_data.obj
 0001:000066e8       __acrt_initialize          00000001800076e8 f   libucrt:initialization.obj
 0001:000066fc       __acrt_thread_attach       00000001800076fc f   libucrt:initialization.obj
 0001:00006710       __acrt_thread_detach       0000000180007710 f   libucrt:initialization.obj
 0001:00006720       __acrt_uninitialize        0000000180007720 f   libucrt:initialization.obj
 0001:00006758       __acrt_uninitialize_critical 0000000180007758 f   libucrt:initialization.obj
 0001:00006768       _initterm                  0000000180007768 f   libucrt:initterm.obj
 0001:000067a0       _initterm_e                00000001800077a0 f   libucrt:initterm.obj
 0001:000067dc       terminate                  00000001800077dc f   libucrt:terminate.obj
 0001:00006800       free                       0000000180007800 f   libucrt:free.obj
 0001:00006808       abort                      0000000180007808 f   libucrt:abort.obj
 0001:00006860       strcpy_s                   0000000180007860 f   libucrt:strcpy_s.obj
 0001:000068e0       calloc                     00000001800078e0 f   libucrt:calloc.obj
 0001:000068f0       ?get_raw_ptd@__crt_cached_ptd_host@@QEAAPEAU__acrt_ptd@@XZ 00000001800078f0 f i libucrt:output.obj
 0001:00006960       ?update_locale_slow@__crt_cached_ptd_host@@AEAAXXZ 0000000180007960 f i libucrt:output.obj
 0001:000069e0       __acrt_initialize_locks    00000001800079e0 f   libucrt:locks.obj
 0001:00006a28       __acrt_lock                0000000180007a28 f   libucrt:locks.obj
 0001:00006a44       __acrt_uninitialize_locks  0000000180007a44 f   libucrt:locks.obj
 0001:00006a7c       __acrt_unlock              0000000180007a7c f   libucrt:locks.obj
 0001:00006aa0       _malloc_base               0000000180007aa0 f   libucrt:malloc_base.obj
 0001:00006e10       ?internal_get_ptd_head_slow@@YAPEAU__acrt_ptd@@XZ 0000000180007e10 f   libucrt:per_thread_data.obj
 0001:00006f30       __acrt_freeptd             0000000180007f30 f   libucrt:per_thread_data.obj
 0001:00006f80       __acrt_getptd              0000000180007f80 f   libucrt:per_thread_data.obj
 0001:00006f9c       __acrt_getptd_head         0000000180007f9c f   libucrt:per_thread_data.obj
 0001:00006fe0       __acrt_getptd_noexit       0000000180007fe0 f   libucrt:per_thread_data.obj
 0001:00007070       __acrt_getptd_noexit_explicit 0000000180008070 f   libucrt:per_thread_data.obj
 0001:000070cc       __acrt_initialize_ptd      00000001800080cc f   libucrt:per_thread_data.obj
 0001:00007110       __acrt_uninitialize_ptd    0000000180008110 f   libucrt:per_thread_data.obj
 0001:00007134       __acrt_app_verifier_enabled 0000000180008134 f   libucrt:peb_access.obj
 0001:00007150       __acrt_is_secure_process   0000000180008150 f   libucrt:peb_access.obj
 0001:00007168       __acrt_get_process_end_policy 0000000180008168 f   libucrt:win_policies.obj
 0001:00007198       ?get_raw_ptd_noexit@__crt_cached_ptd_host@@QEAAPEAU__acrt_ptd@@XZ 0000000180008198 f i libucrt:invalid_parameter.obj
 0001:00007204       ?value@?$dual_state_global@P6AXPEB_W00I_K@Z@__crt_state_management@@QEAAAEAP6AXPEB_W00I_K@ZAEAV__crt_cached_ptd_host@@@Z 0000000180008204 f i libucrt:invalid_parameter.obj
 0001:00007250       __acrt_call_reportfault    0000000180008250 f   libucrt:invalid_parameter.obj
 0001:000073c0       __acrt_initialize_invalid_parameter_handler 00000001800083c0 f   libucrt:invalid_parameter.obj
 0001:000073c8       _invalid_parameter         00000001800083c8 f   libucrt:invalid_parameter.obj
 0001:00007464       _invalid_parameter_internal 0000000180008464 f   libucrt:invalid_parameter.obj
 0001:0000751c       _invalid_parameter_noinfo  000000018000851c f   libucrt:invalid_parameter.obj
 0001:0000753c       _invoke_watson             000000018000853c f   libucrt:invalid_parameter.obj
 0001:00007584       __acrt_errno_from_os_error 0000000180008584 f   libucrt:errno.obj
 0001:00007654       __acrt_errno_map_os_error  0000000180008654 f   libucrt:errno.obj
 0001:0000767c       __acrt_errno_map_os_error_ptd 000000018000867c f   libucrt:errno.obj
 0001:000076a0       __doserrno                 00000001800086a0 f   libucrt:errno.obj
 0001:000076c4       _errno                     00000001800086c4 f   libucrt:errno.obj
 0001:000076f0       _calloc_base               00000001800086f0 f   libucrt:calloc_base.obj
 0001:00007770       _free_base                 0000000180008770 f   libucrt:free_base.obj
 0001:000077dc       ??$__acrt_convert_wcs_mbs_cp@D_WV<lambda_7c9dea7b4ca7285d2cdb541a38da6275>@@U__crt_win32_buffer_internal_dynamic_resizing@@@@YAHQEBDAEAV?$__crt_win32_buffer@_WU__crt_win32_buffer_internal_dynamic_resizing@@@@AEBV<lambda_7c9dea7b4ca7285d2cdb541a38da6275>@@I@Z 00000001800087dc f i libucrt:argv_wildcards.obj
 0001:0000797c       ??$__acrt_convert_wcs_mbs_cp@_WDV<lambda_d8593a27d1aa8c02be35c86a17d324c4>@@U__crt_win32_buffer_internal_dynamic_resizing@@@@YAHQEB_WAEAV?$__crt_win32_buffer@DU__crt_win32_buffer_internal_dynamic_resizing@@@@AEBV<lambda_d8593a27d1aa8c02be35c86a17d324c4>@@I@Z 000000018000897c f i libucrt:argv_wildcards.obj
 0001:00008248       ??0_LocaleUpdate@@QEAA@QEAU__crt_locale_pointers@@@Z 0000000180009248 f i libucrt:argv_wildcards.obj
 0001:000082e4       __acrt_expand_narrow_argv_wildcards 00000001800092e4 f   libucrt:argv_wildcards.obj
 0001:000082ec       ??$__acrt_convert_wcs_mbs_cp@_WDV<lambda_f788ae46380686e8b737efdd8c720d07>@@U__crt_win32_buffer_no_resizing@@@@YAHQEB_WAEAV?$__crt_win32_buffer@DU__crt_win32_buffer_no_resizing@@@@AEBV<lambda_f788ae46380686e8b737efdd8c720d07>@@I@Z 00000001800092ec f i libucrt:getmodulefilenamea.obj
 0001:00008408       __acrt_GetModuleFileNameA  0000000180009408 f   libucrt:getmodulefilenamea.obj
 0001:00008d34       __acrt_initialize_multibyte 0000000180009d34 f   libucrt:mbctype.obj
 0001:00008d94       __acrt_update_thread_multibyte_data 0000000180009d94 f   libucrt:mbctype.obj
 0001:00008db0       _setmbcp_nolock            0000000180009db0 f   libucrt:mbctype.obj
 0001:000090ec       _ismbblead                 000000018000a0ec f   libucrt:ismbbyte.obj
 0001:00009100       __acrt_initialize_command_line 000000018000a100 f   libucrt:argv_data.obj
 0001:00009128       __acrt_MultiByteToWideChar 000000018000a128 f   libucrt:multibytetowidechar.obj
 0001:000091b8       __acrt_WideCharToMultiByte 000000018000a1b8 f   libucrt:widechartomultibyte.obj
 0001:00009298       __dcrt_get_narrow_environment_from_os 000000018000a298 f   libucrt:get_environment_from_os.obj
 0001:000093b0       _recalloc_base             000000018000a3b0 f   libucrt:recalloc.obj
 0001:00009450       _recalloc                  000000018000a450 f   libucrt:recalloc.obj
 0001:0000960c       __acrt_AppPolicyGetProcessTerminationMethodInternal 000000018000a60c f   libucrt:winapi_thunks.obj
 0001:00009668       __acrt_AreFileApisANSI     000000018000a668 f   libucrt:winapi_thunks.obj
 0001:000096b4       __acrt_FlsAlloc            000000018000a6b4 f   libucrt:winapi_thunks.obj
 0001:000096bc       __acrt_FlsFree             000000018000a6bc f   libucrt:winapi_thunks.obj
 0001:000096c4       __acrt_FlsGetValue         000000018000a6c4 f   libucrt:winapi_thunks.obj
 0001:000096cc       __acrt_FlsGetValue2        000000018000a6cc f   libucrt:winapi_thunks.obj
 0001:000096d8       __acrt_FlsSetValue         000000018000a6d8 f   libucrt:winapi_thunks.obj
 0001:000096e0       __acrt_InitializeCriticalSectionEx 000000018000a6e0 f   libucrt:winapi_thunks.obj
 0001:000096e8       __acrt_LCMapStringEx       000000018000a6e8 f   libucrt:winapi_thunks.obj
 0001:000097dc       __acrt_LocaleNameToLCID    000000018000a7dc f   libucrt:winapi_thunks.obj
 0001:00009840       __acrt_initialize_winapi_thunks 000000018000a840 f   libucrt:winapi_thunks.obj
 0001:00009870       __acrt_tls2_supported      000000018000a870 f   libucrt:winapi_thunks.obj
 0001:000098b4       __acrt_uninitialize_winapi_thunks 000000018000a8b4 f   libucrt:winapi_thunks.obj
 0001:00009900       _get_heap_handle           000000018000a900 f   libucrt:heap_handle.obj
 0001:00009910       __acrt_initialize_heap     000000018000a910 f   libucrt:heap_handle.obj
 0001:00009940       __acrt_uninitialize_heap   000000018000a940 f   libucrt:heap_handle.obj
 0001:00009960       __acrt_getheap             000000018000a960 f   libucrt:heap_handle.obj
 0001:00009b70       __acrt_initialize_lowio    000000018000ab70 f   libucrt:ioinit.obj
 0001:00009bac       __acrt_uninitialize_lowio  000000018000abac f   libucrt:ioinit.obj
 0001:00009bec       __acrt_execute_initializers 000000018000abec f   libucrt:shared_initialization.obj
 0001:00009c6c       __acrt_execute_uninitializers 000000018000ac6c f   libucrt:shared_initialization.obj
 0001:00009cf0       __acrt_get_sigabrt_handler 000000018000acf0 f   libucrt:signal.obj
 0001:00009d20       __acrt_initialize_signal_handlers 000000018000ad20 f   libucrt:signal.obj
 0001:00009d40       raise                      000000018000ad40 f   libucrt:signal.obj
 0001:00009fa0       __acrt_has_user_matherr    000000018000afa0 f   libucrt:matherr.obj
 0001:00009fc0       __acrt_initialize_user_matherr 000000018000afc0 f   libucrt:matherr.obj
 0001:00009fd0       __acrt_invoke_user_matherr 000000018000afd0 f   libucrt:matherr.obj
 0001:0000a1e0       __acrt_stdio_flush_nolock  000000018000b1e0 f   libucrt:fflush.obj
 0001:0000a26c       _fflush_nolock             000000018000b26c f   libucrt:fflush.obj
 0001:0000a340       _flushall                  000000018000b340 f   libucrt:fflush.obj
 0001:0000a348       __acrt_initialize_stdio    000000018000b348 f   libucrt:_file.obj
 0001:0000a468       __acrt_uninitialize_stdio  000000018000b468 f   libucrt:_file.obj
 0001:0000a4c4       _lock_file                 000000018000b4c4 f   libucrt:_file.obj
 0001:0000a4d0       _unlock_file               000000018000b4d0 f   libucrt:_file.obj
 0001:0000a4dc       __acrt_update_locale_info  000000018000b4dc f   libucrt:locale_update.obj
 0001:0000a510       __acrt_update_locale_info_explicit 000000018000b510 f   libucrt:locale_update.obj
 0001:0000a548       __acrt_update_multibyte_info 000000018000b548 f   libucrt:locale_update.obj
 0001:0000a57c       __acrt_update_multibyte_info_explicit 000000018000b57c f   libucrt:locale_update.obj
 0001:0000a5b4       _mbtowc_internal           000000018000b5b4 f   libucrt:mbtowc.obj
 0001:0000a72c       ?__mblen_utf8@__crt_mbstring@@YAHPEBD@Z 000000018000b72c f   libucrt:mbrtoc32.obj
 0001:0000a764       ?__mbrtoc32_utf8@__crt_mbstring@@YA_KPEA_UPEBD_KPEAU_Mbstatet@@AEAV__crt_cached_ptd_host@@@Z 000000018000b764 f   libucrt:mbrtoc32.obj
 0001:0000a924       ?__mbrtowc_utf8@__crt_mbstring@@YA_KPEA_WPEBD_KPEAU_Mbstatet@@AEAV__crt_cached_ptd_host@@@Z 000000018000b924 f   libucrt:mbrtowc.obj
 0001:0000a96c       ?__mbsrtowcs_utf8@__crt_mbstring@@YA_KPEA_WPEAPEBD_KPEAU_Mbstatet@@AEAV__crt_cached_ptd_host@@@Z 000000018000b96c f   libucrt:mbrtowc.obj
 0001:0000ab24       _fileno                    000000018000bb24 f   libucrt:fileno.obj
 0001:0000abbc       __acrt_set_locale_changed  000000018000bbbc f   libucrt:wsetlocale.obj
 0001:0000abc8       __acrt_uninitialize_locale 000000018000bbc8 f   libucrt:wsetlocale.obj
 0001:0000ac00       _query_new_mode            000000018000bc00 f   libucrt:new_mode.obj
 0001:0000ac10       _set_new_mode              000000018000bc10 f   libucrt:new_mode.obj
 0001:0000ac3c       __acrt_add_locale_ref      000000018000bc3c f   libucrt:locale_refcounting.obj
 0001:0000acc8       __acrt_free_locale         000000018000bcc8 f   libucrt:locale_refcounting.obj
 0001:0000ae40       __acrt_locale_add_lc_time_reference 000000018000be40 f   libucrt:locale_refcounting.obj
 0001:0000ae68       __acrt_locale_free_lc_time_if_unreferenced 000000018000be68 f   libucrt:locale_refcounting.obj
 0001:0000aea0       __acrt_locale_release_lc_time_reference 000000018000bea0 f   libucrt:locale_refcounting.obj
 0001:0000aec8       __acrt_release_locale_ref  000000018000bec8 f   libucrt:locale_refcounting.obj
 0001:0000af70       __acrt_update_thread_locale_data 000000018000bf70 f   libucrt:locale_refcounting.obj
 0001:0000afe0       _updatetlocinfoEx_nolock   000000018000bfe0 f   libucrt:locale_refcounting.obj
 0001:0000b050       qsort                      000000018000c050 f   libucrt:qsort.obj
 0001:0000b3f0       strncpy_s                  000000018000c3f0 f   libucrt:strncpy_s.obj
 0001:0000b5c0       strpbrk                    000000018000c5c0 f   libucrt:strpbrk.obj
 0001:0000b978       _mbsdec                    000000018000c978 f   libucrt:mbsdec.obj
 0001:0000b980       _mbsdec_l                  000000018000c980 f   libucrt:mbsdec.obj
 0001:0000ba14       __acrt_GetStringTypeA      000000018000ca14 f   libucrt:getstringtypea.obj
 0001:0000bed8       __acrt_LCMapStringA        000000018000ced8 f   libucrt:lcmapstringa.obj
 0001:0000bf90       _msize_base                000000018000cf90 f   libucrt:msize.obj
 0001:0000bfd0       _msize                     000000018000cfd0 f   libucrt:msize.obj
 0001:0000bfe0       _realloc_base              000000018000cfe0 f   libucrt:realloc_base.obj
 0001:0000c060       wcsncmp                    000000018000d060 f   libucrt:wcsncmp.obj
 0001:0000c094       __acrt_DownlevelLocaleNameToLCID 000000018000d094 f   libucrt:lcidtoname_downlevel.obj
 0001:0000c13c       __acrt_lowio_create_handle_array 000000018000d13c f   libucrt:osfinfo.obj
 0001:0000c1e4       __acrt_lowio_destroy_handle_array 000000018000d1e4 f   libucrt:osfinfo.obj
 0001:0000c234       __acrt_lowio_ensure_fh_exists 000000018000d234 f   libucrt:osfinfo.obj
 0001:0000c2dc       __acrt_lowio_lock_fh       000000018000d2dc f   libucrt:osfinfo.obj
 0001:0000c304       __acrt_lowio_unlock_fh     000000018000d304 f   libucrt:osfinfo.obj
 0001:0000c32c       _free_osfhnd               000000018000d32c f   libucrt:osfinfo.obj
 0001:0000c3e8       _get_osfhandle             000000018000d3e8 f   libucrt:osfinfo.obj
 0001:0000c4ec       _commit                    000000018000d4ec f   libucrt:commit.obj
 0001:0000cdac       _write_internal            000000018000ddac f   libucrt:write.obj
 0001:0000cecc       _write_nolock              000000018000decc f   libucrt:write.obj
 0001:0000d1fc       _fcloseall                 000000018000e1fc f   libucrt:closeall.obj
 0001:0000d2b0       __acrt_stdio_free_buffer_nolock 000000018000e2b0 f   libucrt:_freebuf.obj
 0001:0000d2f4       _isatty                    000000018000e2f4 f   libucrt:isatty.obj
 0001:0000d354       ?reset_and_return@__crt_mbstring@@YA_K_KPEAU_Mbstatet@@@Z 000000018000e354 f   libucrt:common_utf8.obj
 0001:0000d35c       ?return_illegal_sequence@__crt_mbstring@@YA_KPEAU_Mbstatet@@AEAV__crt_cached_ptd_host@@@Z 000000018000e35c f   libucrt:common_utf8.obj
 0001:0000d370       __acrt_locale_free_monetary 000000018000e370 f   libucrt:initmon.obj
 0001:0000d47c       __acrt_locale_free_numeric 000000018000e47c f   libucrt:initnum.obj
 0001:0000d51c       __acrt_locale_free_time    000000018000e51c f   libucrt:inittime.obj
 0001:0000d624       _guard_check_icall         000000018000e624 f i libucrt:checkcfg.obj
 0001:0000d640       __strncnt                  000000018000e640 f   libucrt:strncnt.obj
 0001:0000d660       __ascii_wcsnicmp           000000018000e660 f   libucrt:wcsnicmp.obj
 0001:0000d6c8       _query_app_type            000000018000e6c8 f   libucrt:report_runtime_error.obj
 0001:0000d780       _lseeki64_nolock_internal  000000018000e780 f   libucrt:lseek.obj
 0001:0000d788       _putwch_nolock             000000018000e788 f   libucrt:putwch.obj
 0001:0000d8ec       fclose                     000000018000e8ec f   libucrt:fclose.obj
 0001:0000d990       __dcrt_lowio_ensure_console_output_initialized 000000018000e990 f   libucrt:initcon.obj
 0001:0000d9e4       __dcrt_terminate_console_output 000000018000e9e4 f   libucrt:initcon.obj
 0001:0000da00       __dcrt_write_console       000000018000ea00 f   libucrt:initcon.obj
 0001:0000db38       _close_internal            000000018000eb38 f   libucrt:close.obj
 0001:0000dbfc       _close_nolock_internal     000000018000ebfc f   libucrt:close.obj
 0001:0000dccc       ?__acrt_stdio_free_stream@@YAXV__crt_stdio_stream@@@Z 000000018000eccc f   libucrt:stream.obj
 0001:0000de00       _handle_errorf             000000018000ee00 f   libucrt:libm_error.obj
 0001:0000df40       _handle_nanf               000000018000ef40 f   libucrt:libm_error.obj
 0001:0000df50       __acrt_initialize_fma3     000000018000ef50 f   libucrt:fma3_available.obj
 0001:0000e010       _clrfp                     000000018000f010 f   libucrt:fpctrl.obj
 0001:0000e030       _ctrlfp                    000000018000f030 f   libucrt:fpctrl.obj
 0001:0000e0b0       _get_fpcsr                 000000018000f0b0 f   libucrt:fpctrl.obj
 0001:0000e0c0       _set_fpcsr                 000000018000f0c0 f   libucrt:fpctrl.obj
 0001:0000e0d0       _set_statfp                000000018000f0d0 f   libucrt:fpctrl.obj
 0001:0000e0f0       _statfp                    000000018000f0f0 f   libucrt:fpctrl.obj
 0001:0000e100       _raise_exc_ex              000000018000f100 f   libucrt:fpexcept.obj
 0001:0000e410       _raise_excf                000000018000f410 f   libucrt:fpexcept.obj
 0001:0000e440       _set_errno_from_matherr    000000018000f440 f   libucrt:fpexcept.obj
 0001:0000e474       __GSHandlerCheck           000000018000f474 f   LIBCMT:gshandler.obj
 0001:0000e494       __GSHandlerCheckCommon     000000018000f494 f   LIBCMT:gshandler.obj
 0001:0000e500       _FindPESection             000000018000f500 f   LIBCMT:pesect.obj
 0001:0000e550       _IsNonwritableInCurrentImage 000000018000f550 f   LIBCMT:pesect.obj
 0001:0000e5a0       _ValidateImageBase         000000018000f5a0 f   LIBCMT:pesect.obj
 0001:0000e5cc       __GSHandlerCheck_EH        000000018000f5cc f   LIBCMT:gshandlereh.obj
 0001:0000e660       __chkstk                   000000018000f660 f   LIBCMT:chkstk.obj
 0001:0000e660       _alloca_probe              000000018000f660 f   LIBCMT:chkstk.obj
 0001:0000e6b0       __C_specific_handler_noexcept 000000018000f6b0 f   libvcruntime:chandler_noexcept.obj
 0001:0000e700       cosf_sse2                  000000018000f700 f   libucrt:cosf.obj
 0001:0000e9a0       cosf                       000000018000f9a0 f   libucrt:cosf.obj
 0001:0000ebc0       sinf_sse2                  000000018000fbc0 f   libucrt:sinf.obj
 0001:0000ef30       sinf                       000000018000ff30 f   libucrt:sinf.obj
 0001:0000f280       sqrtf                      0000000180010280 f   libucrt:sqrtf.obj
 0001:0000f320       __remainder_piby2d2f_forAsm 0000000180010320 f   libucrt:remainder_piby2f_forasm.obj
 0001:0000f470       __remainder_piby2_fma3     0000000180010470 f   libucrt:remainder_piby2_forfma3.obj
 0001:0000f660       __remainder_piby2_fma3_bdl 0000000180010660 f   libucrt:remainder_piby2_forfma3.obj
 0001:0000f6e0       _cosf_special              00000001800106e0 f   libucrt:sincos_special.obj
 0001:0000f770       _sinf_special              0000000180010770 f   libucrt:sincos_special.obj
 0001:0000f800       __remainder_piby2d2f_forC  0000000180010800 f   libucrt:remainder_piby2f_forc.obj
 0001:0000f9a0       _guard_dispatch_icall_nop  00000001800109a0 f   LIBCMT:guard_dispatch.obj
 0001:0000f9c0       _guard_xfg_dispatch_icall_nop 00000001800109c0 f   LIBCMT:guard_xfg_dispatch.obj
 0001:0000f9e0       _guard_dispatch_icall      00000001800109e0 f   libucrt:dispatchcfg.obj
 0001:0000f9e0       _guard_dispatch_icall_$fo_default$ 00000001800109e0     libucrt:dispatchcfg.obj
 0001:0000fa10       memset_repstos             0000000180010a10 f   libvcruntime:memset.obj
 0001:0000fa20       memset                     0000000180010a20 f   libvcruntime:memset.obj
 0001:0000fdd0       memcpy_repmovs             0000000180010dd0 f   libvcruntime:memcpy.obj
 0001:0000fde0       memcpy                     0000000180010de0 f   libvcruntime:memcpy.obj
 0001:0000fde0       memcpy_$fo_default$        0000000180010de0     libvcruntime:memcpy.obj
 0001:0000fde0       memmove                    0000000180010de0 f   libvcruntime:memcpy.obj
 0001:00010470       strncmp                    0000000180011470 f   libucrt:strncmp.obj
 0002:00000000       __imp_Sleep                0000000180012000     kernel32:KERNEL32.dll
 0002:00000008       __imp_DisableThreadLibraryCalls 0000000180012008     kernel32:KERNEL32.dll
 0002:00000010       __imp_CreateThread         0000000180012010     kernel32:KERNEL32.dll
 0002:00000018       __imp_VirtualFree          0000000180012018     kernel32:KERNEL32.dll
 0002:00000020       __imp_VirtualAlloc         0000000180012020     kernel32:KERNEL32.dll
 0002:00000028       __imp_GetSystemInfo        0000000180012028     kernel32:KERNEL32.dll
 0002:00000030       __imp_VirtualQuery         0000000180012030     kernel32:KERNEL32.dll
 0002:00000038       __imp_HeapCreate           0000000180012038     kernel32:KERNEL32.dll
 0002:00000040       __imp_VirtualProtect       0000000180012040     kernel32:KERNEL32.dll
 0002:00000048       __imp_HeapFree             0000000180012048     kernel32:KERNEL32.dll
 0002:00000050       __imp_GetCurrentProcess    0000000180012050     kernel32:KERNEL32.dll
 0002:00000058       __imp_Thread32Next         0000000180012058     kernel32:KERNEL32.dll
 0002:00000060       __imp_Thread32First        0000000180012060     kernel32:KERNEL32.dll
 0002:00000068       __imp_GetCurrentThreadId   0000000180012068     kernel32:KERNEL32.dll
 0002:00000070       __imp_SuspendThread        0000000180012070     kernel32:KERNEL32.dll
 0002:00000078       __imp_ResumeThread         0000000180012078     kernel32:KERNEL32.dll
 0002:00000080       __imp_CreateToolhelp32Snapshot 0000000180012080     kernel32:KERNEL32.dll
 0002:00000088       __imp_HeapReAlloc          0000000180012088     kernel32:KERNEL32.dll
 0002:00000090       __imp_CloseHandle          0000000180012090     kernel32:KERNEL32.dll
 0002:00000098       __imp_HeapAlloc            0000000180012098     kernel32:KERNEL32.dll
 0002:000000a0       __imp_GetThreadContext     00000001800120a0     kernel32:KERNEL32.dll
 0002:000000a8       __imp_GetProcAddress       00000001800120a8     kernel32:KERNEL32.dll
 0002:000000b0       __imp_GetCurrentProcessId  00000001800120b0     kernel32:KERNEL32.dll
 0002:000000b8       __imp_GetModuleHandleW     00000001800120b8     kernel32:KERNEL32.dll
 0002:000000c0       __imp_FlushInstructionCache 00000001800120c0     kernel32:KERNEL32.dll
 0002:000000c8       __imp_SetThreadContext     00000001800120c8     kernel32:KERNEL32.dll
 0002:000000d0       __imp_OpenThread           00000001800120d0     kernel32:KERNEL32.dll
 0002:000000d8       __imp_WriteConsoleW        00000001800120d8     kernel32:KERNEL32.dll
 0002:000000e0       __imp_CreateFileW          00000001800120e0     kernel32:KERNEL32.dll
 0002:000000e8       __imp_SetFilePointerEx     00000001800120e8     kernel32:KERNEL32.dll
 0002:000000f0       __imp_GetConsoleMode       00000001800120f0     kernel32:KERNEL32.dll
 0002:000000f8       __imp_GetConsoleOutputCP   00000001800120f8     kernel32:KERNEL32.dll
 0002:00000100       __imp_WriteFile            0000000180012100     kernel32:KERNEL32.dll
 0002:00000108       __imp_FlushFileBuffers     0000000180012108     kernel32:KERNEL32.dll
 0002:00000110       __imp_SetStdHandle         0000000180012110     kernel32:KERNEL32.dll
 0002:00000118       __imp_HeapSize             0000000180012118     kernel32:KERNEL32.dll
 0002:00000120       __imp_SetUnhandledExceptionFilter 0000000180012120     kernel32:KERNEL32.dll
 0002:00000128       __imp_GetStartupInfoW      0000000180012128     kernel32:KERNEL32.dll
 0002:00000130       __imp_QueryPerformanceCounter 0000000180012130     kernel32:KERNEL32.dll
 0002:00000138       __imp_GetSystemTimeAsFileTime 0000000180012138     kernel32:KERNEL32.dll
 0002:00000140       __imp_InitializeSListHead  0000000180012140     kernel32:KERNEL32.dll
 0002:00000148       __imp_RtlLookupFunctionEntry 0000000180012148     kernel32:KERNEL32.dll
 0002:00000150       __imp_RtlUnwindEx          0000000180012150     kernel32:KERNEL32.dll
 0002:00000158       __imp_RtlPcToFileHeader    0000000180012158     kernel32:KERNEL32.dll
 0002:00000160       __imp_RaiseException       0000000180012160     kernel32:KERNEL32.dll
 0002:00000168       __imp_InterlockedFlushSList 0000000180012168     kernel32:KERNEL32.dll
 0002:00000170       __imp_GetLastError         0000000180012170     kernel32:KERNEL32.dll
 0002:00000178       __imp_SetLastError         0000000180012178     kernel32:KERNEL32.dll
 0002:00000180       __imp_FlsAlloc             0000000180012180     kernel32:KERNEL32.dll
 0002:00000188       __imp_FlsGetValue          0000000180012188     kernel32:KERNEL32.dll
 0002:00000190       __imp_FlsSetValue          0000000180012190     kernel32:KERNEL32.dll
 0002:00000198       __imp_FlsFree              0000000180012198     kernel32:KERNEL32.dll
 0002:000001a0       __imp_EncodePointer        00000001800121a0     kernel32:KERNEL32.dll
 0002:000001a8       __imp_EnterCriticalSection 00000001800121a8     kernel32:KERNEL32.dll
 0002:000001b0       __imp_LeaveCriticalSection 00000001800121b0     kernel32:KERNEL32.dll
 0002:000001b8       __imp_InitializeCriticalSectionEx 00000001800121b8     kernel32:KERNEL32.dll
 0002:000001c0       __imp_DeleteCriticalSection 00000001800121c0     kernel32:KERNEL32.dll
 0002:000001c8       __imp_ExitProcess          00000001800121c8     kernel32:KERNEL32.dll
 0002:000001d0       __imp_TerminateProcess     00000001800121d0     kernel32:KERNEL32.dll
 0002:000001d8       __imp_FreeLibrary          00000001800121d8     kernel32:KERNEL32.dll
 0002:000001e0       __imp_GetModuleHandleExW   00000001800121e0     kernel32:KERNEL32.dll
 0002:000001e8       __imp_GetModuleFileNameW   00000001800121e8     kernel32:KERNEL32.dll
 0002:000001f0       __imp_IsProcessorFeaturePresent 00000001800121f0     kernel32:KERNEL32.dll
 0002:000001f8       __imp_RtlCaptureContext    00000001800121f8     kernel32:KERNEL32.dll
 0002:00000200       __imp_RtlVirtualUnwind     0000000180012200     kernel32:KERNEL32.dll
 0002:00000208       __imp_IsDebuggerPresent    0000000180012208     kernel32:KERNEL32.dll
 0002:00000210       __imp_UnhandledExceptionFilter 0000000180012210     kernel32:KERNEL32.dll
 0002:00000218       __imp_FindClose            0000000180012218     kernel32:KERNEL32.dll
 0002:00000220       __imp_FindFirstFileExW     0000000180012220     kernel32:KERNEL32.dll
 0002:00000228       __imp_FindNextFileW        0000000180012228     kernel32:KERNEL32.dll
 0002:00000230       __imp_IsValidCodePage      0000000180012230     kernel32:KERNEL32.dll
 0002:00000238       __imp_GetACP               0000000180012238     kernel32:KERNEL32.dll
 0002:00000240       __imp_GetOEMCP             0000000180012240     kernel32:KERNEL32.dll
 0002:00000248       __imp_GetCPInfo            0000000180012248     kernel32:KERNEL32.dll
 0002:00000250       __imp_GetCommandLineA      0000000180012250     kernel32:KERNEL32.dll
 0002:00000258       __imp_GetCommandLineW      0000000180012258     kernel32:KERNEL32.dll
 0002:00000260       __imp_MultiByteToWideChar  0000000180012260     kernel32:KERNEL32.dll
 0002:00000268       __imp_WideCharToMultiByte  0000000180012268     kernel32:KERNEL32.dll
 0002:00000270       __imp_GetEnvironmentStringsW 0000000180012270     kernel32:KERNEL32.dll
 0002:00000278       __imp_FreeEnvironmentStringsW 0000000180012278     kernel32:KERNEL32.dll
 0002:00000280       __imp_LoadLibraryExW       0000000180012280     kernel32:KERNEL32.dll
 0002:00000288       __imp_LCMapStringW         0000000180012288     kernel32:KERNEL32.dll
 0002:00000290       __imp_GetProcessHeap       0000000180012290     kernel32:KERNEL32.dll
 0002:00000298       __imp_GetStdHandle         0000000180012298     kernel32:KERNEL32.dll
 0002:000002a0       __imp_GetFileType          00000001800122a0     kernel32:KERNEL32.dll
 0002:000002a8       __imp_GetStringTypeW       00000001800122a8     kernel32:KERNEL32.dll
 0002:000002b0       \177KERNEL32_NULL_THUNK_DATA 00000001800122b0     kernel32:KERNEL32.dll
 0002:000002b8       __imp_SendInput            00000001800122b8     user32:USER32.dll
 0002:000002c0       __imp_CreateWindowExA      00000001800122c0     user32:USER32.dll
 0002:000002c8       __imp_GetAsyncKeyState     00000001800122c8     user32:USER32.dll
 0002:000002d0       __imp_CallNextHookEx       00000001800122d0     user32:USER32.dll
 0002:000002d8       __imp_DestroyWindow        00000001800122d8     user32:USER32.dll
 0002:000002e0       \177USER32_NULL_THUNK_DATA 00000001800122e0     user32:USER32.dll
 0002:000002e8       __imp_timeGetTime          00000001800122e8     winmm:WINMM.dll
 0002:000002f0       \177WINMM_NULL_THUNK_DATA  00000001800122f0     winmm:WINMM.dll
 0002:000002f8       __imp_Direct3DCreate9      00000001800122f8     d3d9:d3d9.dll
 0002:00000300       \177d3d9_NULL_THUNK_DATA   0000000180012300     d3d9:d3d9.dll
 0002:00000308       __imp_D3DXVec3Project      0000000180012308     d3dx9:d3dx9_43.dll
 0002:00000310       \177d3dx9_43_NULL_THUNK_DATA 0000000180012310     d3dx9:d3dx9_43.dll
 0002:00000318       __guard_check_icall_fptr   0000000180012318     LIBCMT:guard_support.obj
 0002:00000320       __guard_xfg_check_icall_fptr 0000000180012320     LIBCMT:guard_support.obj
 0002:00000328       __guard_dispatch_icall_fptr 0000000180012328     LIBCMT:guard_support.obj
 0002:00000330       __guard_xfg_dispatch_icall_fptr 0000000180012330     LIBCMT:guard_support.obj
 0002:00000338       __guard_xfg_table_dispatch_icall_fptr 0000000180012338     LIBCMT:guard_support.obj
 0002:00000340       __castguard_check_failure_os_handled_fptr 0000000180012340     LIBCMT:guard_support.obj
 0002:00000348       __guard_memcpy_fptr        0000000180012348     libvcruntime:softmemtag.obj
 0002:00000350       __xc_a                     0000000180012350     LIBCMT:initializers.obj
 0002:00000368       __xc_z                     0000000180012368     LIBCMT:initializers.obj
 0002:00000370       __xi_a                     0000000180012370     LIBCMT:initializers.obj
 0002:00000378       __acrt_multibyte_initializer 0000000180012378     libucrt:multibyte_initializer.obj
 0002:00000380       __acrt_stdio_initializer   0000000180012380     libucrt:stdio_initializer.obj
 0002:00000388       __acrt_tran_fma3_initializer 0000000180012388     libucrt:fma3_initializer.obj
 0002:00000390       __xi_z                     0000000180012390     LIBCMT:initializers.obj
 0002:00000398       __xp_a                     0000000180012398     LIBCMT:initializers.obj
 0002:000003a0       __acrt_locale_terminator   00000001800123a0     libucrt:locale_initializer.obj
 0002:000003a8       __dcrt_console_output_terminator 00000001800123a8     libucrt:console_output_initializer.obj
 0002:000003b0       __acrt_stdio_terminator    00000001800123b0     libucrt:stdio_initializer.obj
 0002:000003b8       __xp_z                     00000001800123b8     LIBCMT:initializers.obj
 0002:000003c0       __xt_a                     00000001800123c0     LIBCMT:initializers.obj
 0002:000003c8       __xt_z                     00000001800123c8     LIBCMT:initializers.obj
 0002:000003d8       ??_7exception@std@@6B@     00000001800123d8     libcpmt:xthrow.obj
 0002:000003f0       ??_7bad_alloc@std@@6B@     00000001800123f0     libcpmt:xthrow.obj
 0002:00000400       ??_C@_0P@GHFPNOJB@bad?5allocation@ 0000000180012400     libcpmt:xthrow.obj
 0002:00000418       ??_7logic_error@std@@6B@   0000000180012418     libcpmt:xthrow.obj
 0002:00000430       ??_7length_error@std@@6B@  0000000180012430     libcpmt:xthrow.obj
 0002:00000440       __xmm@ffffffffffffffffffffffffffffffff 0000000180012440     LIBCMT:utility.obj
 0002:00000458       ??_7type_info@@6B@         0000000180012458     LIBCMT:std_type_info_static.obj
 0002:00000460       _pDefaultRawDllMain        0000000180012460     LIBCMT:dll_dllmain.obj
 0002:00000460       _pRawDllMain               0000000180012460     LIBCMT:dll_dllmain.obj
 0002:00000470       ??_7bad_array_new_length@std@@6B@ 0000000180012470     LIBCMT:throw_bad_alloc.obj
 0002:00000518       _pDestructExceptionObject  0000000180012518     libvcruntime:ehhelpers.obj
 0002:00000528       ??_7bad_exception@std@@6B@ 0000000180012528     libvcruntime:frame.obj
 0002:00000538       ??_C@_0O@DPKOEFFH@bad?5exception@ 0000000180012538     libvcruntime:frame.obj
 0002:00000c60       ??_C@_08EHJDFFNH@__based?$CI@ 0000000180012c60     libvcruntime:undname.obj
 0002:00000c70       ??_C@_07KOLFKCDI@__cdecl@  0000000180012c70     libvcruntime:undname.obj
 0002:00000c78       ??_C@_09IFJBGAPI@__stdcall@ 0000000180012c78     libvcruntime:undname.obj
 0002:00000c88       ??_C@_0L@NPHFGOKO@__thiscall@ 0000000180012c88     libvcruntime:undname.obj
 0002:00000c98       ??_C@_0L@JMKHOMEK@__fastcall@ 0000000180012c98     libvcruntime:undname.obj
 0002:00000ca8       ??_C@_0N@BCKKPABJ@__vectorcall@ 0000000180012ca8     libvcruntime:undname.obj
 0002:00000cb8       ??_C@_0BA@NAGGFLJK@__preserve_none@ 0000000180012cb8     libvcruntime:undname.obj
 0002:00000cc8       ??_C@_09HIJEGCPM@__clrcall@ 0000000180012cc8     libvcruntime:undname.obj
 0002:00000cd4       ??_C@_06GHPCKEAG@__eabi@   0000000180012cd4     libvcruntime:undname.obj
 0002:00000ce0       ??_C@_09IOPIDJLG@__swift_1@ 0000000180012ce0     libvcruntime:undname.obj
 0002:00000cf0       ??_C@_09KFNFGKHF@__swift_2@ 0000000180012cf0     libvcruntime:undname.obj
 0002:00000d00       ??_C@_09LMMOFLDE@__swift_3@ 0000000180012d00     libvcruntime:undname.obj
 0002:00000d10       ??_C@_07JOMMBBKO@__ptr64@  0000000180012d10     libvcruntime:undname.obj
 0002:00000d18       ??_C@_0L@PILCLIHE@__restrict@ 0000000180012d18     libvcruntime:undname.obj
 0002:00000d28       ??_C@_0M@GFIIJFMG@__unaligned@ 0000000180012d28     libvcruntime:undname.obj
 0002:00000d38       ??_C@_09DHDLOLLB@restrict?$CI@ 0000000180012d38     libvcruntime:undname.obj
 0002:00000d42       ??_C@_00CNPNBAHC@@         0000000180012d42     libvcruntime:undname.obj
 0002:00000d44       ??_C@_04NIHEBCM@?5new@     0000000180012d44     libvcruntime:undname.obj
 0002:00000d50       ??_C@_07FPCDHGMM@?5delete@ 0000000180012d50     libvcruntime:undname.obj
 0002:00000d58       ??_C@_01NEMOKFLO@?$DN@     0000000180012d58     libvcruntime:undname.obj
 0002:00000d5c       ??_C@_02GPIOPFAK@?$DO?$DO@ 0000000180012d5c     libvcruntime:undname.obj
 0002:00000d60       ??_C@_02FODMEDOG@?$DM?$DM@ 0000000180012d60     libvcruntime:undname.obj
 0002:00000d64       ??_C@_01DCLJPIOD@?$CB@     0000000180012d64     libvcruntime:undname.obj
 0002:00000d68       ??_C@_02EGOFBIJA@?$DN?$DN@ 0000000180012d68     libvcruntime:undname.obj
 0002:00000d6c       ??_C@_02FDNJECIE@?$CB?$DN@ 0000000180012d6c     libvcruntime:undname.obj
 0002:00000d70       ??_C@_02GPECMEKF@?$FL?$FN@ 0000000180012d70     libvcruntime:undname.obj
 0002:00000d78       ??_C@_08LHJFAFGD@operator@ 0000000180012d78     libvcruntime:undname.obj
 0002:00000d84       ??_C@_02HBOOOICD@?9?$DO@   0000000180012d84     libvcruntime:undname.obj
 0002:00000d88       ??_C@_01NBENCBCI@?$CK@     0000000180012d88     libvcruntime:undname.obj
 0002:00000d8c       ??_C@_02ECNGHCIF@?$CL?$CL@ 0000000180012d8c     libvcruntime:undname.obj
 0002:00000d90       ??_C@_02BAABKJLB@?9?9@     0000000180012d90     libvcruntime:undname.obj
 0002:00000d94       ??_C@_01JOAMLHOP@?9@       0000000180012d94     libvcruntime:undname.obj
 0002:00000d98       ??_C@_01MIFGBAGJ@?$CL@     0000000180012d98     libvcruntime:undname.obj
 0002:00000d9c       ??_C@_01HNPIGOCE@?$CG@     0000000180012d9c     libvcruntime:undname.obj
 0002:00000da0       ??_C@_03MNHNFDLC@?9?$DO?$CK@ 0000000180012da0     libvcruntime:undname.obj
 0002:00000da4       ??_C@_01KMDKNFGN@?1@       0000000180012da4     libvcruntime:undname.obj
 0002:00000da8       ??_C@_01FGNFDNOH@?$CF@     0000000180012da8     libvcruntime:undname.obj
 0002:00000dac       ??_C@_01MNNFJEPP@?$DM@     0000000180012dac     libvcruntime:undname.obj
 0002:00000db0       ??_C@_02EHCHHCKH@?$DM?$DN@ 0000000180012db0     libvcruntime:undname.obj
 0002:00000db4       ??_C@_01PPODPGHN@?$DO@     0000000180012db4     libvcruntime:undname.obj
 0002:00000db8       ??_C@_02EEKDKGMJ@?$DO?$DN@ 0000000180012db8     libvcruntime:undname.obj
 0002:00000dbc       ??_C@_01IHBHIGKO@?0@       0000000180012dbc     libvcruntime:undname.obj
 0002:00000dc0       ??_C@_02HCKGKOFO@?$CI?$CJ@ 0000000180012dc0     libvcruntime:undname.obj
 0002:00000dc4       ??_C@_01PJKLJHI@?$HO@      0000000180012dc4     libvcruntime:undname.obj
 0002:00000dc8       ??_C@_01JKBOJNNK@?$FO@     0000000180012dc8     libvcruntime:undname.obj
 0002:00000dcc       ??_C@_01DNKMNLPK@?$HM@     0000000180012dcc     libvcruntime:undname.obj
 0002:00000dd0       ??_C@_02PPKAJPJL@?$CG?$CG@ 0000000180012dd0     libvcruntime:undname.obj
 0002:00000dd4       ??_C@_02NONPIBCD@?$HM?$HM@ 0000000180012dd4     libvcruntime:undname.obj
 0002:00000dd8       ??_C@_02FPIMKNGF@?$CK?$DN@ 0000000180012dd8     libvcruntime:undname.obj
 0002:00000ddc       ??_C@_02FOEOMHFC@?$CL?$DN@ 0000000180012ddc     libvcruntime:undname.obj
 0002:00000de0       ??_C@_02FKMDLLOA@?9?$DN@   0000000180012de0     libvcruntime:undname.obj
 0002:00000de4       ??_C@_02FJEHGPIO@?1?$DN@   0000000180012de4     libvcruntime:undname.obj
 0002:00000de8       ??_C@_02FENAOKFI@?$CF?$DN@ 0000000180012de8     libvcruntime:undname.obj
 0002:00000dec       ??_C@_03IKFCCPFF@?$DO?$DO?$DN@ 0000000180012dec     libvcruntime:undname.obj
 0002:00000df0       ??_C@_03CDNPDDLA@?$DM?$DM?$DN@ 0000000180012df0     libvcruntime:undname.obj
 0002:00000df4       ??_C@_02FGJGFEAB@?$CG?$DN@ 0000000180012df4     libvcruntime:undname.obj
 0002:00000df8       ??_C@_02DHLNPPGH@?$HM?$DN@ 0000000180012df8     libvcruntime:undname.obj
 0002:00000dfc       ??_C@_02MHEGNOJ@?$FO?$DN@  0000000180012dfc     libvcruntime:undname.obj
 0002:00000e00       ??_C@_09IFPLHPGF@?$GAvftable?8@ 0000000180012e00     libvcruntime:undname.obj
 0002:00000e10       ??_C@_09BLBHBJP@?$GAvbtable?8@ 0000000180012e10     libvcruntime:undname.obj
 0002:00000e20       ??_C@_07FEEIOKP@?$GAvcall?8@ 0000000180012e20     libvcruntime:undname.obj
 0002:00000e28       ??_C@_08LLFFHHDJ@?$GAtypeof?8@ 0000000180012e28     libvcruntime:undname.obj
 0002:00000e38       ??_C@_0BF@KDPPACIK@?$GAlocal?5static?5guard?8@ 0000000180012e38     libvcruntime:undname.obj
 0002:00000e50       ??_C@_08OBABFOLI@?$GAstring?8@ 0000000180012e50     libvcruntime:undname.obj
 0002:00000e60       ??_C@_0BD@JDLKDPAB@?$GAvbase?5destructor?8@ 0000000180012e60     libvcruntime:undname.obj
 0002:00000e78       ??_C@_0BN@DEGPLNFK@?$GAvector?5deleting?5destructor?8@ 0000000180012e78     libvcruntime:undname.obj
 0002:00000e98       ??_C@_0BO@OBMKPJIG@?$GAdefault?5constructor?5closure?8@ 0000000180012e98     libvcruntime:undname.obj
 0002:00000eb8       ??_C@_0BN@IMDCHIKM@?$GAscalar?5deleting?5destructor?8@ 0000000180012eb8     libvcruntime:undname.obj
 0002:00000ed8       ??_C@_0BO@PFGOCPJJ@?$GAvector?5constructor?5iterator?8@ 0000000180012ed8     libvcruntime:undname.obj
 0002:00000ef8       ??_C@_0BN@LFPFMEDL@?$GAvector?5destructor?5iterator?8@ 0000000180012ef8     libvcruntime:undname.obj
 0002:00000f18       ??_C@_0CE@IKBNEHA@?$GAvector?5vbase?5constructor?5itera@ 0000000180012f18     libvcruntime:undname.obj
 0002:00000f40       ??_C@_0BL@NILFHHPC@?$GAvirtual?5displacement?5map?8@ 0000000180012f40     libvcruntime:undname.obj
 0002:00000f60       ??_C@_0CB@JONCMFFK@?$GAeh?5vector?5constructor?5iterator@ 0000000180012f60     libvcruntime:undname.obj
 0002:00000f88       ??_C@_0CA@GCEOPDGL@?$GAeh?5vector?5destructor?5iterator?8@ 0000000180012f88     libvcruntime:undname.obj
 0002:00000fa8       ??_C@_0CH@OOJPLCPH@?$GAeh?5vector?5vbase?5constructor?5it@ 0000000180012fa8     libvcruntime:undname.obj
 0002:00000fd0       ??_C@_0BL@LLKPOHJI@?$GAcopy?5constructor?5closure?8@ 0000000180012fd0     libvcruntime:undname.obj
 0002:00000ff0       ??_C@_0BA@KBCDOMBN@?$GAudt?5returning?8@ 0000000180012ff0     libvcruntime:undname.obj
 0002:00001000       ??_C@_03KLGMFNMG@?$GAEH@   0000000180013000     libvcruntime:undname.obj
 0002:00001004       ??_C@_05KHLCHHI@?$GARTTI@  0000000180013004     libvcruntime:undname.obj
 0002:00001010       ??_C@_0BA@KKLDJDLB@?$GAlocal?5vftable?8@ 0000000180013010     libvcruntime:undname.obj
 0002:00001020       ??_C@_0CE@IIHCMGGL@?$GAlocal?5vftable?5constructor?5clos@ 0000000180013020     libvcruntime:undname.obj
 0002:00001044       ??_C@_06FHBGPFGH@?5new?$FL?$FN@ 0000000180013044     libvcruntime:undname.obj
 0002:00001050       ??_C@_09LBNFPBCA@?5delete?$FL?$FN@ 0000000180013050     libvcruntime:undname.obj
 0002:00001060       ??_C@_0P@HJKNJFNN@?$GAomni?5callsig?8@ 0000000180013060     libvcruntime:undname.obj
 0002:00001070       ??_C@_0BL@CNOONJFP@?$GAplacement?5delete?5closure?8@ 0000000180013070     libvcruntime:undname.obj
 0002:00001090       ??_C@_0BN@CKNJLHMB@?$GAplacement?5delete?$FL?$FN?5closure?8@ 0000000180013090     libvcruntime:undname.obj
 0002:000010b0       ??_C@_0CG@CFDHKGGD@?$GAmanaged?5vector?5constructor?5ite@ 00000001800130b0     libvcruntime:undname.obj
 0002:000010d8       ??_C@_0CF@IMGKMJNO@?$GAmanaged?5vector?5destructor?5iter@ 00000001800130d8     libvcruntime:undname.obj
 0002:00001100       ??_C@_0CG@HLDDJMAG@?$GAeh?5vector?5copy?5constructor?5ite@ 0000000180013100     libvcruntime:undname.obj
 0002:00001128       ??_C@_0CM@FCBBDIGB@?$GAeh?5vector?5vbase?5copy?5construct@ 0000000180013128     libvcruntime:undname.obj
 0002:00001158       ??_C@_0BL@CLIPGLGB@?$GAdynamic?5initializer?5for?5?8@ 0000000180013158     libvcruntime:undname.obj
 0002:00001178       ??_C@_0CB@PDBIFEP@?$GAdynamic?5atexit?5destructor?5for?5@ 0000000180013178     libvcruntime:undname.obj
 0002:000011a0       ??_C@_0CD@CGAJBKEJ@?$GAvector?5copy?5constructor?5iterat@ 00000001800131a0     libvcruntime:undname.obj
 0002:000011c8       ??_C@_0CJ@GJELGAMM@?$GAvector?5vbase?5copy?5constructor?5@ 00000001800131c8     libvcruntime:undname.obj
 0002:000011f8       ??_C@_0CL@FGIJHLCE@?$GAmanaged?5vector?5copy?5constructo@ 00000001800131f8     libvcruntime:undname.obj
 0002:00001228       ??_C@_0BM@PMGGMLDN@?$GAlocal?5static?5thread?5guard?8@ 0000000180013228     libvcruntime:undname.obj
 0002:00001248       ??_C@_0N@BDNMDMOL@operator?5?$CC?$CC?5@ 0000000180013248     libvcruntime:undname.obj
 0002:00001258       ??_C@_0BC@GGEBGALA@operator?5co_await@ 0000000180013258     libvcruntime:undname.obj
 0002:00001270       ??_C@_0M@GAAIMMOH@operator?$DM?$DN?$DO@ 0000000180013270     libvcruntime:undname.obj
 0002:00001280       ??_C@_0BC@DAFEJGAK@?5Type?5Descriptor?8@ 0000000180013280     libvcruntime:undname.obj
 0002:00001298       ??_C@_0BM@LDKODKLH@?5Base?5Class?5Descriptor?5at?5?$CI@ 0000000180013298     libvcruntime:undname.obj
 0002:000012b8       ??_C@_0BD@LGICGFMM@?5Base?5Class?5Array?8@ 00000001800132b8     libvcruntime:undname.obj
 0002:000012d0       ??_C@_0BN@MECKDCOJ@?5Class?5Hierarchy?5Descriptor?8@ 00000001800132d0     libvcruntime:undname.obj
 0002:000012f0       ??_C@_0BK@CFCOFLF@?5Complete?5Object?5Locator?8@ 00000001800132f0     libvcruntime:undname.obj
 0002:00001310       ??_C@_0BG@JNJLAMPM@?$GAanonymous?5namespace?8@ 0000000180013310     libvcruntime:undname.obj
 0002:00001330       __acrt_exception_action_table 0000000180013330     libucrt:exception_filter.obj
 0002:000013f0       __acrt_signal_action_table_count 00000001800133f0     libucrt:exception_filter.obj
 0002:000013f8       __acrt_signal_action_first_fpe_index 00000001800133f8     libucrt:exception_filter.obj
 0002:00001400       __acrt_signal_action_fpe_count 0000000180013400     libucrt:exception_filter.obj
 0002:00001458       ??_C@_1BI@BGOHAHKC@?$AAm?$AAs?$AAc?$AAo?$AAr?$AAe?$AAe?$AA?4?$AAd?$AAl?$AAl@ 0000000180013458     libucrt:exit.obj
 0002:00001470       ??_C@_0P@MIGLKIOC@CorExitProcess@ 0000000180013470     libucrt:exit.obj
 0002:00001758       ??_C@_1M@HPNHIDJI@?$AAj?$AAa?$AA?9?$AAJ?$AAP@ 0000000180013758     libucrt:mbctype.obj
 0002:00001768       ??_C@_1M@BIBDDEMK@?$AAz?$AAh?$AA?9?$AAC?$AAN@ 0000000180013768     libucrt:mbctype.obj
 0002:00001778       ??_C@_1M@JLOOOEGK@?$AAk?$AAo?$AA?9?$AAK?$AAR@ 0000000180013778     libucrt:mbctype.obj
 0002:00001788       ??_C@_1M@CLNBBOPM@?$AAz?$AAh?$AA?9?$AAT?$AAW@ 0000000180013788     libucrt:mbctype.obj
 0002:00001860       ??_C@_1EA@JGEFHKEI@?$AAa?$AAp?$AAi?$AA?9?$AAm?$AAs?$AA?9?$AAw?$AAi?$AAn?$AA?9?$AAc?$AAo?$AAr?$AAe@ 0000000180013860     libucrt:winapi_thunks.obj
 0002:000018a0       ??_C@_1DM@LFJCLCKP@?$AAa?$AAp?$AAi?$AA?9?$AAm?$AAs?$AA?9?$AAw?$AAi?$AAn?$AA?9?$AAc?$AAo?$AAr?$AAe@ 00000001800138a0     libucrt:winapi_thunks.obj
 0002:000018e0       ??_C@_1DI@KMEPCBPN@?$AAa?$AAp?$AAi?$AA?9?$AAm?$AAs?$AA?9?$AAw?$AAi?$AAn?$AA?9?$AAc?$AAo?$AAr?$AAe@ 00000001800138e0     libucrt:winapi_thunks.obj
 0002:00001918       ??_C@_1DI@IJCEHOCB@?$AAa?$AAp?$AAi?$AA?9?$AAm?$AAs?$AA?9?$AAw?$AAi?$AAn?$AA?9?$AAc?$AAo?$AAr?$AAe@ 0000000180013918     libucrt:winapi_thunks.obj
 0002:00001950       ??_C@_1DI@FFFOPEOO@?$AAa?$AAp?$AAi?$AA?9?$AAm?$AAs?$AA?9?$AAw?$AAi?$AAn?$AA?9?$AAc?$AAo?$AAr?$AAe@ 0000000180013950     libucrt:winapi_thunks.obj
 0002:00001990       ??_C@_1EI@MPIAOHOC@?$AAa?$AAp?$AAi?$AA?9?$AAm?$AAs?$AA?9?$AAw?$AAi?$AAn?$AA?9?$AAc?$AAo?$AAr?$AAe@ 0000000180013990     libucrt:winapi_thunks.obj
 0002:000019e0       ??_C@_1FK@FPHCKFIE@?$AAa?$AAp?$AAi?$AA?9?$AAm?$AAs?$AA?9?$AAw?$AAi?$AAn?$AA?9?$AAc?$AAo?$AAr?$AAe@ 00000001800139e0     libucrt:winapi_thunks.obj
 0002:00001a40       ??_C@_1EM@DILCGIIO@?$AAa?$AAp?$AAi?$AA?9?$AAm?$AAs?$AA?9?$AAw?$AAi?$AAn?$AA?9?$AAc?$AAo?$AAr?$AAe@ 0000000180013a40     libucrt:winapi_thunks.obj
 0002:00001a90       ??_C@_1DM@LNCGDDPN@?$AAa?$AAp?$AAi?$AA?9?$AAm?$AAs?$AA?9?$AAw?$AAi?$AAn?$AA?9?$AAc?$AAo?$AAr?$AAe@ 0000000180013a90     libucrt:winapi_thunks.obj
 0002:00001ad0       ??_C@_1DK@LPPGFMPP@?$AAa?$AAp?$AAi?$AA?9?$AAm?$AAs?$AA?9?$AAw?$AAi?$AAn?$AA?9?$AAc?$AAo?$AAr?$AAe@ 0000000180013ad0     libucrt:winapi_thunks.obj
 0002:00001b10       ??_C@_1DO@FPAPJEMD@?$AAa?$AAp?$AAi?$AA?9?$AAm?$AAs?$AA?9?$AAw?$AAi?$AAn?$AA?9?$AAc?$AAo?$AAr?$AAe@ 0000000180013b10     libucrt:winapi_thunks.obj
 0002:00001b50       ??_C@_1DK@NDHNAHIO@?$AAa?$AAp?$AAi?$AA?9?$AAm?$AAs?$AA?9?$AAw?$AAi?$AAn?$AA?9?$AAc?$AAo?$AAr?$AAe@ 0000000180013b50     libucrt:winapi_thunks.obj
 0002:00001b90       ??_C@_1DM@KGHDGBCM@?$AAa?$AAp?$AAi?$AA?9?$AAm?$AAs?$AA?9?$AAw?$AAi?$AAn?$AA?9?$AAc?$AAo?$AAr?$AAe@ 0000000180013b90     libucrt:winapi_thunks.obj
 0002:00001bd0       ??_C@_1EO@IJIOEFOH@?$AAa?$AAp?$AAi?$AA?9?$AAm?$AAs?$AA?9?$AAw?$AAi?$AAn?$AA?9?$AAr?$AAt?$AAc?$AAo@ 0000000180013bd0     libucrt:winapi_thunks.obj
 0002:00001c20       ??_C@_1FG@HHGEKANL@?$AAa?$AAp?$AAi?$AA?9?$AAm?$AAs?$AA?9?$AAw?$AAi?$AAn?$AA?9?$AAs?$AAe?$AAc?$AAu@ 0000000180013c20     libucrt:winapi_thunks.obj
 0002:00001c80       ??_C@_1EG@DBIOJECG@?$AAe?$AAx?$AAt?$AA?9?$AAm?$AAs?$AA?9?$AAw?$AAi?$AAn?$AA?9?$AAn?$AAt?$AAu?$AAs@ 0000000180013c80     libucrt:winapi_thunks.obj
 0002:00001cd0       ??_C@_1EO@FIHMJCLF@?$AAe?$AAx?$AAt?$AA?9?$AAm?$AAs?$AA?9?$AAw?$AAi?$AAn?$AA?9?$AAn?$AAt?$AAu?$AAs@ 0000000180013cd0     libucrt:winapi_thunks.obj
 0002:00001d20       ??_C@_1BC@DNHGCMLG@?$AAa?$AAd?$AAv?$AAa?$AAp?$AAi?$AA3?$AA2@ 0000000180013d20     libucrt:winapi_thunks.obj
 0002:00001d38       ??_C@_1BC@GDMECMAK@?$AAk?$AAe?$AAr?$AAn?$AAe?$AAl?$AA3?$AA2@ 0000000180013d38     libucrt:winapi_thunks.obj
 0002:00001d50       ??_C@_1BG@CJPGBMEF@?$AAk?$AAe?$AAr?$AAn?$AAe?$AAl?$AAb?$AAa?$AAs?$AAe@ 0000000180013d50     libucrt:winapi_thunks.obj
 0002:00001d68       ??_C@_1M@OAIMIKLP@?$AAn?$AAt?$AAd?$AAl?$AAl@ 0000000180013d68     libucrt:winapi_thunks.obj
 0002:00001d80       ??_C@_1EG@DPGNFKGC@?$AAa?$AAp?$AAi?$AA?9?$AAm?$AAs?$AA?9?$AAw?$AAi?$AAn?$AA?9?$AAa?$AAp?$AAp?$AAm@ 0000000180013d80     libucrt:winapi_thunks.obj
 0002:00001dc8       ??_C@_1O@BCCLBEOE@?$AAu?$AAs?$AAe?$AAr?$AA3?$AA2@ 0000000180013dc8     libucrt:winapi_thunks.obj
 0002:00001dd8       ??_C@_1BA@PFFKHIOG@?$AAa?$AAp?$AAi?$AA?9?$AAm?$AAs?$AA?9@ 0000000180013dd8     libucrt:winapi_thunks.obj
 0002:00001de8       ??_C@_1BA@IAIFMGEF@?$AAe?$AAx?$AAt?$AA?9?$AAm?$AAs?$AA?9@ 0000000180013de8     libucrt:winapi_thunks.obj
 0002:00001e00       ??_C@_0BA@FHFNEAED@AreFileApisANSI@ 0000000180013e00     libucrt:winapi_thunks.obj
 0002:00001e18       ??_C@_0N@MFBBDCAC@FlsGetValue2@ 0000000180013e18     libucrt:winapi_thunks.obj
 0002:00001e30       ??_C@_0O@KKBNKAPF@LCMapStringEx@ 0000000180013e30     libucrt:winapi_thunks.obj
 0002:00001e48       ??_C@_0BB@HBDEELFH@LocaleNameToLCID@ 0000000180013e48     libucrt:winapi_thunks.obj
 0002:00001e60       ??_C@_0CF@OJOFEIGO@AppPolicyGetProcessTerminationM@ 0000000180013e60     libucrt:winapi_thunks.obj
 0002:00001e90       __lc_time_c                0000000180013e90     libucrt:nlsdata.obj
 0002:00002150       ??_C@_03KOEHGMDN@Sun@      0000000180014150     libucrt:nlsdata.obj
 0002:00002154       ??_C@_03PDAGKDH@Mon@       0000000180014154     libucrt:nlsdata.obj
 0002:00002158       ??_C@_03NAGEINEP@Tue@      0000000180014158     libucrt:nlsdata.obj
 0002:0000215c       ??_C@_03MHOMLAJA@Wed@      000000018001415c     libucrt:nlsdata.obj
 0002:00002160       ??_C@_03IOFIKPDN@Thu@      0000000180014160     libucrt:nlsdata.obj
 0002:00002164       ??_C@_03IDIOELNC@Fri@      0000000180014164     libucrt:nlsdata.obj
 0002:00002168       ??_C@_03FEFJNEK@Sat@       0000000180014168     libucrt:nlsdata.obj
 0002:0000216c       ??_C@_06OOPIFAJ@Sunday@    000000018001416c     libucrt:nlsdata.obj
 0002:00002174       ??_C@_06JLEDEDGH@Monday@   0000000180014174     libucrt:nlsdata.obj
 0002:00002180       ??_C@_07BAAGCFCM@Tuesday@  0000000180014180     libucrt:nlsdata.obj
 0002:00002188       ??_C@_09DLIGFAKA@Wednesday@ 0000000180014188     libucrt:nlsdata.obj
 0002:00002198       ??_C@_08HACCIKIA@Thursday@ 0000000180014198     libucrt:nlsdata.obj
 0002:000021a4       ??_C@_06JECMNKMI@Friday@   00000001800141a4     libucrt:nlsdata.obj
 0002:000021b0       ??_C@_08INBOOONO@Saturday@ 00000001800141b0     libucrt:nlsdata.obj
 0002:000021bc       ??_C@_03JIHJHPIE@Jan@      00000001800141bc     libucrt:nlsdata.obj
 0002:000021c0       ??_C@_03HJBDCHOM@Feb@      00000001800141c0     libucrt:nlsdata.obj
 0002:000021c4       ??_C@_03ODNJBKGA@Mar@      00000001800141c4     libucrt:nlsdata.obj
 0002:000021c8       ??_C@_03LEOLGMJP@Apr@      00000001800141c8     libucrt:nlsdata.obj
 0002:000021cc       ??_C@_03CNMDKL@May@        00000001800141cc     libucrt:nlsdata.obj
 0002:000021d0       ??_C@_03IDFGHECI@Jun@      00000001800141d0     libucrt:nlsdata.obj
 0002:000021d4       ??_C@_03LBGABGKK@Jul@      00000001800141d4     libucrt:nlsdata.obj
 0002:000021d8       ??_C@_03IFJFEIGA@Aug@      00000001800141d8     libucrt:nlsdata.obj
 0002:000021dc       ??_C@_03GGCAPAJC@Sep@      00000001800141dc     libucrt:nlsdata.obj
 0002:000021e0       ??_C@_03BMAOKBAD@Oct@      00000001800141e0     libucrt:nlsdata.obj
 0002:000021e4       ??_C@_03JPJOFNIA@Nov@      00000001800141e4     libucrt:nlsdata.obj
 0002:000021e8       ??_C@_03MKABNOCG@Dec@      00000001800141e8     libucrt:nlsdata.obj
 0002:000021f0       ??_C@_07CGJPFGJA@January@  00000001800141f0     libucrt:nlsdata.obj
 0002:000021f8       ??_C@_08GNJGEPFN@February@ 00000001800141f8     libucrt:nlsdata.obj
 0002:00002204       ??_C@_05HPCKOFNC@March@    0000000180014204     libucrt:nlsdata.obj
 0002:0000220c       ??_C@_05DMJDNLEJ@April@    000000018001420c     libucrt:nlsdata.obj
 0002:00002214       ??_C@_04CNLMGBGM@June@     0000000180014214     libucrt:nlsdata.obj
 0002:0000221c       ??_C@_04MIEPOIFP@July@     000000018001421c     libucrt:nlsdata.obj
 0002:00002224       ??_C@_06LBBHFDDG@August@   0000000180014224     libucrt:nlsdata.obj
 0002:00002230       ??_C@_09BHHEALKD@September@ 0000000180014230     libucrt:nlsdata.obj
 0002:00002240       ??_C@_07JJNFCEND@October@  0000000180014240     libucrt:nlsdata.obj
 0002:00002248       ??_C@_08HCHEGEOA@November@ 0000000180014248     libucrt:nlsdata.obj
 0002:00002258       ??_C@_08EDHMEBNP@December@ 0000000180014258     libucrt:nlsdata.obj
 0002:00002264       ??_C@_02DEDBPAFC@AM@       0000000180014264     libucrt:nlsdata.obj
 0002:00002268       ??_C@_02CJNFDJBF@PM@       0000000180014268     libucrt:nlsdata.obj
 0002:00002270       ??_C@_08BPBNCDIB@MM?1dd?1yy@ 0000000180014270     libucrt:nlsdata.obj
 0002:00002280       ??_C@_0BE@CKGJFCPC@dddd?0?5MMMM?5dd?0?5yyyy@ 0000000180014280     libucrt:nlsdata.obj
 0002:00002298       ??_C@_08JCCMCCIL@HH?3mm?3ss@ 0000000180014298     libucrt:nlsdata.obj
 0002:000022a8       ??_C@_17MBGCMIPB@?$AAS?$AAu?$AAn@ 00000001800142a8     libucrt:nlsdata.obj
 0002:000022b0       ??_C@_17KBOMKBF@?$AAM?$AAo?$AAn@ 00000001800142b0     libucrt:nlsdata.obj
 0002:000022b8       ??_C@_17BMKGEGOJ@?$AAT?$AAu?$AAe@ 00000001800142b8     libucrt:nlsdata.obj
 0002:000022c0       ??_C@_17CJEDCEPE@?$AAW?$AAe?$AAd@ 00000001800142c0     libucrt:nlsdata.obj
 0002:000022c8       ??_C@_17PDPHAADD@?$AAT?$AAh?$AAu@ 00000001800142c8     libucrt:nlsdata.obj
 0002:000022d0       ??_C@_17HFOLPPLP@?$AAF?$AAr?$AAi@ 00000001800142d0     libucrt:nlsdata.obj
 0002:000022d8       ??_C@_17GGIBDPIH@?$AAS?$AAa?$AAt@ 00000001800142d8     libucrt:nlsdata.obj
 0002:000022e0       ??_C@_1O@IHNHDHPB@?$AAS?$AAu?$AAn?$AAd?$AAa?$AAy@ 00000001800142e0     libucrt:nlsdata.obj
 0002:000022f0       ??_C@_1O@MMNBFLIA@?$AAM?$AAo?$AAn?$AAd?$AAa?$AAy@ 00000001800142f0     libucrt:nlsdata.obj
 0002:00002300       ??_C@_1BA@ENFBFFEK@?$AAT?$AAu?$AAe?$AAs?$AAd?$AAa?$AAy@ 0000000180014300     libucrt:nlsdata.obj
 0002:00002310       ??_C@_1BE@EBOGMDOH@?$AAW?$AAe?$AAd?$AAn?$AAe?$AAs?$AAd?$AAa?$AAy@ 0000000180014310     libucrt:nlsdata.obj
 0002:00002328       ??_C@_1BC@HHMNLIHE@?$AAT?$AAh?$AAu?$AAr?$AAs?$AAd?$AAa?$AAy@ 0000000180014328     libucrt:nlsdata.obj
 0002:00002340       ??_C@_1O@PDICJHAG@?$AAF?$AAr?$AAi?$AAd?$AAa?$AAy@ 0000000180014340     libucrt:nlsdata.obj
 0002:00002350       ??_C@_1BC@ENMNNPAJ@?$AAS?$AAa?$AAt?$AAu?$AAr?$AAd?$AAa?$AAy@ 0000000180014350     libucrt:nlsdata.obj
 0002:00002368       ??_C@_17DKNBKCHM@?$AAJ?$AAa?$AAn@ 0000000180014368     libucrt:nlsdata.obj
 0002:00002370       ??_C@_17LMDJEKJN@?$AAF?$AAe?$AAb@ 0000000180014370     libucrt:nlsdata.obj
 0002:00002378       ??_C@_17CKNLEDEC@?$AAM?$AAa?$AAr@ 0000000180014378     libucrt:nlsdata.obj
 0002:00002380       ??_C@_17LFPOIHDD@?$AAA?$AAp?$AAr@ 0000000180014380     libucrt:nlsdata.obj
 0002:00002388       ??_C@_17PNNKMEED@?$AAM?$AAa?$AAy@ 0000000180014388     libucrt:nlsdata.obj
 0002:00002390       ??_C@_17KCJGOCPB@?$AAJ?$AAu?$AAn@ 0000000180014390     libucrt:nlsdata.obj
 0002:00002398       ??_C@_17IJPCKHK@?$AAJ?$AAu?$AAl@ 0000000180014398     libucrt:nlsdata.obj
 0002:000023a0       ??_C@_17ICPELBCN@?$AAA?$AAu?$AAg@ 00000001800143a0     libucrt:nlsdata.obj
 0002:000023a8       ??_C@_17HCHCOKMG@?$AAS?$AAe?$AAp@ 00000001800143a8     libucrt:nlsdata.obj
 0002:000023b0       ??_C@_17FNLKOI@?$AAO?$AAc?$AAt@ 00000001800143b0     libucrt:nlsdata.obj
 0002:000023b8       ??_C@_17BBDMLCIG@?$AAN?$AAo?$AAv@ 00000001800143b8     libucrt:nlsdata.obj
 0002:000023c0       ??_C@_17EGKACKIF@?$AAD?$AAe?$AAc@ 00000001800143c0     libucrt:nlsdata.obj
 0002:000023c8       ??_C@_1BA@EFMEIEBA@?$AAJ?$AAa?$AAn?$AAu?$AAa?$AAr?$AAy@ 00000001800143c8     libucrt:nlsdata.obj
 0002:000023d8       ??_C@_1BC@JGDDFFAM@?$AAF?$AAe?$AAb?$AAr?$AAu?$AAa?$AAr?$AAy@ 00000001800143d8     libucrt:nlsdata.obj
 0002:000023f0       ??_C@_1M@IKEENEDF@?$AAM?$AAa?$AAr?$AAc?$AAh@ 00000001800143f0     libucrt:nlsdata.obj
 0002:00002400       ??_C@_1M@GJNLMHFD@?$AAA?$AAp?$AAr?$AAi?$AAl@ 0000000180014400     libucrt:nlsdata.obj
 0002:00002410       ??_C@_19EPFLPGAP@?$AAJ?$AAu?$AAn?$AAe@ 0000000180014410     libucrt:nlsdata.obj
 0002:00002420       ??_C@_19BIFMLPCD@?$AAJ?$AAu?$AAl?$AAy@ 0000000180014420     libucrt:nlsdata.obj
 0002:00002430       ??_C@_1O@PAHLKOAC@?$AAA?$AAu?$AAg?$AAu?$AAs?$AAt@ 0000000180014430     libucrt:nlsdata.obj
 0002:00002440       ??_C@_1BE@DKAAMBJL@?$AAS?$AAe?$AAp?$AAt?$AAe?$AAm?$AAb?$AAe?$AAr@ 0000000180014440     libucrt:nlsdata.obj
 0002:00002458       ??_C@_1BA@EPANDLNG@?$AAO?$AAc?$AAt?$AAo?$AAb?$AAe?$AAr@ 0000000180014458     libucrt:nlsdata.obj
 0002:00002468       ??_C@_1BC@BGLIFPF@?$AAN?$AAo?$AAv?$AAe?$AAm?$AAb?$AAe?$AAr@ 0000000180014468     libucrt:nlsdata.obj
 0002:00002480       ??_C@_1BC@FEMKIFH@?$AAD?$AAe?$AAc?$AAe?$AAm?$AAb?$AAe?$AAr@ 0000000180014480     libucrt:nlsdata.obj
 0002:00002494       ??_C@_15ODEHAHHF@?$AAA?$AAM@ 0000000180014494     libucrt:nlsdata.obj
 0002:0000249c       ??_C@_15CLMNNGEL@?$AAP?$AAM@ 000000018001449c     libucrt:nlsdata.obj
 0002:000024a8       ??_C@_1BC@IEBCMHCM@?$AAM?$AAM?$AA?1?$AAd?$AAd?$AA?1?$AAy?$AAy@ 00000001800144a8     libucrt:nlsdata.obj
 0002:000024c0       ??_C@_1CI@KNAKOEBC@?$AAd?$AAd?$AAd?$AAd?$AA?0?$AA?5?$AAM?$AAM?$AAM?$AAM?$AA?5?$AAd?$AAd?$AA?0?$AA?5@ 00000001800144c0     libucrt:nlsdata.obj
 0002:000024e8       ??_C@_1BC@GDGBMEMK@?$AAH?$AAH?$AA?3?$AAm?$AAm?$AA?3?$AAs?$AAs@ 00000001800144e8     libucrt:nlsdata.obj
 0002:00002500       ??_C@_1M@BMHNFIME@?$AAe?$AAn?$AA?9?$AAU?$AAS@ 0000000180014500     libucrt:nlsdata.obj
 0002:00002510       __newctype                 0000000180014510     libucrt:ctype.obj
 0002:00002810       __newclmap                 0000000180014810     libucrt:ctype.obj
 0002:00002990       __newcumap                 0000000180014990     libucrt:ctype.obj
 0002:00003950       ??_C@_15EMKDOKLE@?$AAa?$AAr@ 0000000180015950     libucrt:lcidtoname_downlevel.obj
 0002:00003958       ??_C@_15KNPADPLH@?$AAb?$AAg@ 0000000180015958     libucrt:lcidtoname_downlevel.obj
 0002:00003960       ??_C@_15EDMHLDMO@?$AAc?$AAa@ 0000000180015960     libucrt:lcidtoname_downlevel.obj
 0002:00003968       ??_C@_1O@BPEAJADD@?$AAz?$AAh?$AA?9?$AAC?$AAH?$AAS@ 0000000180015968     libucrt:lcidtoname_downlevel.obj
 0002:00003978       ??_C@_15LJNHCMNK@?$AAc?$AAs@ 0000000180015978     libucrt:lcidtoname_downlevel.obj
 0002:00003980       ??_C@_15FOMCIDHG@?$AAd?$AAa@ 0000000180015980     libucrt:lcidtoname_downlevel.obj
 0002:00003988       ??_C@_15NBKABECB@?$AAd?$AAe@ 0000000180015988     libucrt:lcidtoname_downlevel.obj
 0002:00003990       ??_C@_15GHPEIIAO@?$AAe?$AAl@ 0000000180015990     libucrt:lcidtoname_downlevel.obj
 0002:00003998       ??_C@_15MNPNEAIF@?$AAe?$AAn@ 0000000180015998     libucrt:lcidtoname_downlevel.obj
 0002:000039a0       ??_C@_15GPIOMPMH@?$AAe?$AAs@ 00000001800159a0     libucrt:lcidtoname_downlevel.obj
 0002:000039a8       ??_C@_15NGLOAKJC@?$AAf?$AAi@ 00000001800159a8     libucrt:lcidtoname_downlevel.obj
 0002:000039b0       ??_C@_15FBKGNKAM@?$AAf?$AAr@ 00000001800159b0     libucrt:lcidtoname_downlevel.obj
 0002:000039b8       ??_C@_15KGGCNEFK@?$AAh?$AAe@ 00000001800159b8     libucrt:lcidtoname_downlevel.obj
 0002:000039c0       ??_C@_15PGHLIDMF@?$AAh?$AAu@ 00000001800159c0     libucrt:lcidtoname_downlevel.obj
 0002:000039c8       ??_C@_15BIEMAPLM@?$AAi?$AAs@ 00000001800159c8     libucrt:lcidtoname_downlevel.obj
 0002:000039d0       ??_C@_15IFJLDHAF@?$AAi?$AAt@ 00000001800159d0     libucrt:lcidtoname_downlevel.obj
 0002:000039d8       ??_C@_15GEMIOCAG@?$AAj?$AAa@ 00000001800159d8     libucrt:lcidtoname_downlevel.obj
 0002:000039e0       ??_C@_15EPELEGJA@?$AAk?$AAo@ 00000001800159e0     libucrt:lcidtoname_downlevel.obj
 0002:000039e8       ??_C@_15NDDHIMN@?$AAn?$AAl@ 00000001800159e8     libucrt:lcidtoname_downlevel.obj
 0002:000039f0       ??_C@_15BPIGNHCD@?$AAn?$AAo@ 00000001800159f0     libucrt:lcidtoname_downlevel.obj
 0002:000039f8       ??_C@_15DEOPBLCG@?$AAp?$AAl@ 00000001800159f8     libucrt:lcidtoname_downlevel.obj
 0002:00003a00       ??_C@_15KBECGEFG@?$AAp?$AAt@ 0000000180015a00     libucrt:lcidtoname_downlevel.obj
 0002:00003a08       ??_C@_15GLJCBFMD@?$AAr?$AAo@ 0000000180015a08     libucrt:lcidtoname_downlevel.obj
 0002:00003a10       ??_C@_15FEDGKCDI@?$AAr?$AAu@ 0000000180015a10     libucrt:lcidtoname_downlevel.obj
 0002:00003a18       ??_C@_15GLKMLLHM@?$AAh?$AAr@ 0000000180015a18     libucrt:lcidtoname_downlevel.obj
 0002:00003a20       ??_C@_15CPKMFBDB@?$AAs?$AAk@ 0000000180015a20     libucrt:lcidtoname_downlevel.obj
 0002:00003a28       ??_C@_15BAAIOGMK@?$AAs?$AAq@ 0000000180015a28     libucrt:lcidtoname_downlevel.obj
 0002:00003a30       ??_C@_15INNPNOHD@?$AAs?$AAv@ 0000000180015a30     libucrt:lcidtoname_downlevel.obj
 0002:00003a38       ??_C@_15CABMMOGH@?$AAt?$AAh@ 0000000180015a38     libucrt:lcidtoname_downlevel.obj
 0002:00003a40       ??_C@_15BPLIHJJM@?$AAt?$AAr@ 0000000180015a40     libucrt:lcidtoname_downlevel.obj
 0002:00003a48       ??_C@_15NEOEKKDJ@?$AAu?$AAr@ 0000000180015a48     libucrt:lcidtoname_downlevel.obj
 0002:00003a50       ??_C@_15NFICGAJK@?$AAi?$AAd@ 0000000180015a50     libucrt:lcidtoname_downlevel.obj
 0002:00003a58       ??_C@_15PJPFLCCM@?$AAu?$AAk@ 0000000180015a58     libucrt:lcidtoname_downlevel.obj
 0002:00003a60       ??_C@_15HPJPHDM@?$AAb?$AAe@ 0000000180015a60     libucrt:lcidtoname_downlevel.obj
 0002:00003a68       ??_C@_15LCHLGJII@?$AAs?$AAl@ 0000000180015a68     libucrt:lcidtoname_downlevel.obj
 0002:00003a70       ??_C@_15PCFJPHHO@?$AAe?$AAt@ 0000000180015a70     libucrt:lcidtoname_downlevel.obj
 0002:00003a78       ??_C@_15HPFPGODN@?$AAl?$AAv@ 0000000180015a78     libucrt:lcidtoname_downlevel.obj
 0002:00003a80       ??_C@_15NFFGKGLG@?$AAl?$AAt@ 0000000180015a80     libucrt:lcidtoname_downlevel.obj
 0002:00003a88       ??_C@_15BDAKCCHN@?$AAf?$AAa@ 0000000180015a88     libucrt:lcidtoname_downlevel.obj
 0002:00003a90       ??_C@_15NFGIAIAJ@?$AAv?$AAi@ 0000000180015a90     libucrt:lcidtoname_downlevel.obj
 0002:00003a98       ??_C@_15LMKNDMHN@?$AAh?$AAy@ 0000000180015a98     libucrt:lcidtoname_downlevel.obj
 0002:00003aa0       ??_C@_15IJBHMCFL@?$AAa?$AAz@ 0000000180015aa0     libucrt:lcidtoname_downlevel.obj
 0002:00003aa8       ??_C@_15EKOFJABL@?$AAe?$AAu@ 0000000180015aa8     libucrt:lcidtoname_downlevel.obj
 0002:00003ab0       ??_C@_15BGHADCNK@?$AAm?$AAk@ 0000000180015ab0     libucrt:lcidtoname_downlevel.obj
 0002:00003ab8       ??_C@_15JDNICKHM@?$AAa?$AAf@ 0000000180015ab8     libucrt:lcidtoname_downlevel.obj
 0002:00003ac0       ??_C@_15KPJEDBKD@?$AAk?$AAa@ 0000000180015ac0     libucrt:lcidtoname_downlevel.obj
 0002:00003ac8       ??_C@_15PDNFFFEO@?$AAf?$AAo@ 0000000180015ac8     libucrt:lcidtoname_downlevel.obj
 0002:00003ad0       ??_C@_15OMLEGLOC@?$AAh?$AAi@ 0000000180015ad0     libucrt:lcidtoname_downlevel.obj
 0002:00003ad8       ??_C@_15IDNNENKK@?$AAm?$AAs@ 0000000180015ad8     libucrt:lcidtoname_downlevel.obj
 0002:00003ae0       ??_C@_15MACJNBMH@?$AAk?$AAk@ 0000000180015ae0     libucrt:lcidtoname_downlevel.obj
 0002:00003ae8       ??_C@_15DKDJEOND@?$AAk?$AAy@ 0000000180015ae8     libucrt:lcidtoname_downlevel.obj
 0002:00003af0       ??_C@_15DFGDLJBG@?$AAs?$AAw@ 0000000180015af0     libucrt:lcidtoname_downlevel.obj
 0002:00003af8       ??_C@_15BBFAICNG@?$AAu?$AAz@ 0000000180015af8     libucrt:lcidtoname_downlevel.obj
 0002:00003b00       ??_C@_15DKNDCGEA@?$AAt?$AAt@ 0000000180015b00     libucrt:lcidtoname_downlevel.obj
 0002:00003b08       ??_C@_15MGIFMDPL@?$AAp?$AAa@ 0000000180015b08     libucrt:lcidtoname_downlevel.obj
 0002:00003b10       ??_C@_15HCNDBBA@?$AAg?$AAu@ 0000000180015b10     libucrt:lcidtoname_downlevel.obj
 0002:00003b18       ??_C@_15FNBEIBON@?$AAt?$AAa@ 0000000180015b18     libucrt:lcidtoname_downlevel.obj
 0002:00003b20       ??_C@_15NCHGBGLK@?$AAt?$AAe@ 0000000180015b20     libucrt:lcidtoname_downlevel.obj
 0002:00003b28       ??_C@_15PHPHCBPF@?$AAk?$AAn@ 0000000180015b28     libucrt:lcidtoname_downlevel.obj
 0002:00003b30       ??_C@_15DLGBCKMP@?$AAm?$AAr@ 0000000180015b30     libucrt:lcidtoname_downlevel.obj
 0002:00003b38       ??_C@_15EABBLBFF@?$AAs?$AAa@ 0000000180015b38     libucrt:lcidtoname_downlevel.obj
 0002:00003b40       ??_C@_15CBKOMCOI@?$AAm?$AAn@ 0000000180015b40     libucrt:lcidtoname_downlevel.obj
 0002:00003b48       ??_C@_15CKDMCJAF@?$AAg?$AAl@ 0000000180015b48     libucrt:lcidtoname_downlevel.obj
 0002:00003b50       ??_C@_17CNJFBPG@?$AAk?$AAo?$AAk@ 0000000180015b50     libucrt:lcidtoname_downlevel.obj
 0002:00003b58       ??_C@_17FFBJICPL@?$AAs?$AAy?$AAr@ 0000000180015b58     libucrt:lcidtoname_downlevel.obj
 0002:00003b60       ??_C@_17KPNDCPAF@?$AAd?$AAi?$AAv@ 0000000180015b60     libucrt:lcidtoname_downlevel.obj
 0002:00003b68       ??_C@_11LOCGONAA@@         0000000180015b68     libucrt:lcidtoname_downlevel.obj
 0002:00003b70       ??_C@_1M@OKAHONE@?$AAa?$AAr?$AA?9?$AAS?$AAA@ 0000000180015b70     libucrt:lcidtoname_downlevel.obj
 0002:00003b80       ??_C@_1M@FFFIGIGK@?$AAb?$AAg?$AA?9?$AAB?$AAG@ 0000000180015b80     libucrt:lcidtoname_downlevel.obj
 0002:00003b90       ??_C@_1M@BJNKEDC@?$AAc?$AAa?$AA?9?$AAE?$AAS@ 0000000180015b90     libucrt:lcidtoname_downlevel.obj
 0002:00003ba0       ??_C@_1M@IJJHFJHA@?$AAc?$AAs?$AA?9?$AAC?$AAZ@ 0000000180015ba0     libucrt:lcidtoname_downlevel.obj
 0002:00003bb0       ??_C@_1M@CLPEOBGI@?$AAd?$AAa?$AA?9?$AAD?$AAK@ 0000000180015bb0     libucrt:lcidtoname_downlevel.obj
 0002:00003bc0       ??_C@_1M@MCMADGCB@?$AAd?$AAe?$AA?9?$AAD?$AAE@ 0000000180015bc0     libucrt:lcidtoname_downlevel.obj
 0002:00003bd0       ??_C@_1M@OOCKEMAM@?$AAe?$AAl?$AA?9?$AAG?$AAR@ 0000000180015bd0     libucrt:lcidtoname_downlevel.obj
 0002:00003be0       ??_C@_1M@DDNJFGID@?$AAf?$AAi?$AA?9?$AAF?$AAI@ 0000000180015be0     libucrt:lcidtoname_downlevel.obj
 0002:00003bf0       ??_C@_1M@GLIPPMAC@?$AAf?$AAr?$AA?9?$AAF?$AAR@ 0000000180015bf0     libucrt:lcidtoname_downlevel.obj
 0002:00003c00       ??_C@_1M@GFMCHPE@?$AAh?$AAe?$AA?9?$AAI?$AAL@ 0000000180015c00     libucrt:lcidtoname_downlevel.obj
 0002:00003c10       ??_C@_1M@MHLPGNKM@?$AAh?$AAu?$AA?9?$AAH?$AAU@ 0000000180015c10     libucrt:lcidtoname_downlevel.obj
 0002:00003c20       ??_C@_1M@LPDDNNPN@?$AAi?$AAs?$AA?9?$AAI?$AAS@ 0000000180015c20     libucrt:lcidtoname_downlevel.obj
 0002:00003c30       ??_C@_1M@MADIPODN@?$AAi?$AAt?$AA?9?$AAI?$AAT@ 0000000180015c30     libucrt:lcidtoname_downlevel.obj
 0002:00003c40       ??_C@_1M@IHBJJGG@?$AAn?$AAl?$AA?9?$AAN?$AAL@ 0000000180015c40     libucrt:lcidtoname_downlevel.obj
 0002:00003c50       ??_C@_1M@EANAGDL@?$AAn?$AAb?$AA?9?$AAN?$AAO@ 0000000180015c50     libucrt:lcidtoname_downlevel.obj
 0002:00003c60       ??_C@_1M@NEIEMEGP@?$AAp?$AAl?$AA?9?$AAP?$AAL@ 0000000180015c60     libucrt:lcidtoname_downlevel.obj
 0002:00003c70       ??_C@_1M@BOCFIGEP@?$AAp?$AAt?$AA?9?$AAB?$AAR@ 0000000180015c70     libucrt:lcidtoname_downlevel.obj
 0002:00003c80       ??_C@_1M@IMPFOPBG@?$AAr?$AAo?$AA?9?$AAR?$AAO@ 0000000180015c80     libucrt:lcidtoname_downlevel.obj
 0002:00003c90       ??_C@_1M@IDNNEJMM@?$AAr?$AAu?$AA?9?$AAR?$AAU@ 0000000180015c90     libucrt:lcidtoname_downlevel.obj
 0002:00003ca0       ??_C@_1M@LILEEOGM@?$AAh?$AAr?$AA?9?$AAH?$AAR@ 0000000180015ca0     libucrt:lcidtoname_downlevel.obj
 0002:00003cb0       ??_C@_1M@FKIFEHPB@?$AAs?$AAk?$AA?9?$AAS?$AAK@ 0000000180015cb0     libucrt:lcidtoname_downlevel.obj
 0002:00003cc0       ??_C@_1M@LJMAMNPJ@?$AAs?$AAq?$AA?9?$AAA?$AAL@ 0000000180015cc0     libucrt:lcidtoname_downlevel.obj
 0002:00003cd0       ??_C@_1M@GIAKDKJK@?$AAs?$AAv?$AA?9?$AAS?$AAE@ 0000000180015cd0     libucrt:lcidtoname_downlevel.obj
 0002:00003ce0       ??_C@_1M@MKJKIKCL@?$AAt?$AAh?$AA?9?$AAT?$AAH@ 0000000180015ce0     libucrt:lcidtoname_downlevel.obj
 0002:00003cf0       ??_C@_1M@MFLCCMPB@?$AAt?$AAr?$AA?9?$AAT?$AAR@ 0000000180015cf0     libucrt:lcidtoname_downlevel.obj
 0002:00003d00       ??_C@_1M@OIJHDKJN@?$AAu?$AAr?$AA?9?$AAP?$AAK@ 0000000180015d00     libucrt:lcidtoname_downlevel.obj
 0002:00003d10       ??_C@_1M@LHIPCIEK@?$AAi?$AAd?$AA?9?$AAI?$AAD@ 0000000180015d10     libucrt:lcidtoname_downlevel.obj
 0002:00003d20       ??_C@_1M@MFMOBGI@?$AAu?$AAk?$AA?9?$AAU?$AAA@ 0000000180015d20     libucrt:lcidtoname_downlevel.obj
 0002:00003d30       ??_C@_1M@OBGLJIPL@?$AAb?$AAe?$AA?9?$AAB?$AAY@ 0000000180015d30     libucrt:lcidtoname_downlevel.obj
 0002:00003d40       ??_C@_1M@BCFAJEAD@?$AAs?$AAl?$AA?9?$AAS?$AAI@ 0000000180015d40     libucrt:lcidtoname_downlevel.obj
 0002:00003d50       ??_C@_1M@FKFFEDDN@?$AAe?$AAt?$AA?9?$AAE?$AAE@ 0000000180015d50     libucrt:lcidtoname_downlevel.obj
 0002:00003d60       ??_C@_1M@KGKKAACI@?$AAl?$AAv?$AA?9?$AAL?$AAV@ 0000000180015d60     libucrt:lcidtoname_downlevel.obj
 0002:00003d70       ??_C@_1M@IFGBIJO@?$AAl?$AAt?$AA?9?$AAL?$AAT@ 0000000180015d70     libucrt:lcidtoname_downlevel.obj
 0002:00003d80       ??_C@_1M@FGEAHEDM@?$AAf?$AAa?$AA?9?$AAI?$AAR@ 0000000180015d80     libucrt:lcidtoname_downlevel.obj
 0002:00003d90       ??_C@_1M@KBMAIBFN@?$AAv?$AAi?$AA?9?$AAV?$AAN@ 0000000180015d90     libucrt:lcidtoname_downlevel.obj
 0002:00003da0       ??_C@_1M@GPCBKDJK@?$AAh?$AAy?$AA?9?$AAA?$AAM@ 0000000180015da0     libucrt:lcidtoname_downlevel.obj
 0002:00003db0       ??_C@_1BG@BECMDDJB@?$AAa?$AAz?$AA?9?$AAA?$AAZ?$AA?9?$AAL?$AAa?$AAt?$AAn@ 0000000180015db0     libucrt:lcidtoname_downlevel.obj
 0002:00003dc8       ??_C@_1M@MAOFCAEA@?$AAe?$AAu?$AA?9?$AAE?$AAS@ 0000000180015dc8     libucrt:lcidtoname_downlevel.obj
 0002:00003dd8       ??_C@_1M@IGHABKPI@?$AAm?$AAk?$AA?9?$AAM?$AAK@ 0000000180015dd8     libucrt:lcidtoname_downlevel.obj
 0002:00003de8       ??_C@_1M@IAIGNEJG@?$AAt?$AAn?$AA?9?$AAZ?$AAA@ 0000000180015de8     libucrt:lcidtoname_downlevel.obj
 0002:00003df8       ??_C@_1M@IIJCOJFA@?$AAx?$AAh?$AA?9?$AAZ?$AAA@ 0000000180015df8     libucrt:lcidtoname_downlevel.obj
 0002:00003e08       ??_C@_1M@LGPJHNJH@?$AAz?$AAu?$AA?9?$AAZ?$AAA@ 0000000180015e08     libucrt:lcidtoname_downlevel.obj
 0002:00003e18       ??_C@_1M@HOKAOIO@?$AAa?$AAf?$AA?9?$AAZ?$AAA@ 0000000180015e18     libucrt:lcidtoname_downlevel.obj
 0002:00003e28       ??_C@_1M@DPCLHLIE@?$AAk?$AAa?$AA?9?$AAG?$AAE@ 0000000180015e28     libucrt:lcidtoname_downlevel.obj
 0002:00003e38       ??_C@_1M@BLKMHJBI@?$AAf?$AAo?$AA?9?$AAF?$AAO@ 0000000180015e38     libucrt:lcidtoname_downlevel.obj
 0002:00003e48       ??_C@_1M@LGGJAPPB@?$AAh?$AAi?$AA?9?$AAI?$AAN@ 0000000180015e48     libucrt:lcidtoname_downlevel.obj
 0002:00003e58       ??_C@_1M@FIKPIHFE@?$AAm?$AAt?$AA?9?$AAM?$AAT@ 0000000180015e58     libucrt:lcidtoname_downlevel.obj
 0002:00003e68       ??_C@_1M@HEGGPBFA@?$AAs?$AAe?$AA?9?$AAN?$AAO@ 0000000180015e68     libucrt:lcidtoname_downlevel.obj
 0002:00003e78       ??_C@_1M@EIBJEEPA@?$AAm?$AAs?$AA?9?$AAM?$AAY@ 0000000180015e78     libucrt:lcidtoname_downlevel.obj
 0002:00003e88       ??_C@_1M@FHLBGMPP@?$AAk?$AAk?$AA?9?$AAK?$AAZ@ 0000000180015e88     libucrt:lcidtoname_downlevel.obj
 0002:00003e98       ??_C@_1M@NGJJLCGI@?$AAk?$AAy?$AA?9?$AAK?$AAG@ 0000000180015e98     libucrt:lcidtoname_downlevel.obj
 0002:00003ea8       ??_C@_1M@GIENNBFC@?$AAs?$AAw?$AA?9?$AAK?$AAE@ 0000000180015ea8     libucrt:lcidtoname_downlevel.obj
 0002:00003eb8       ??_C@_1BG@NDGMJIMJ@?$AAu?$AAz?$AA?9?$AAU?$AAZ?$AA?9?$AAL?$AAa?$AAt?$AAn@ 0000000180015eb8     libucrt:lcidtoname_downlevel.obj
 0002:00003ed0       ??_C@_1M@IDCCIHBC@?$AAt?$AAt?$AA?9?$AAR?$AAU@ 0000000180015ed0     libucrt:lcidtoname_downlevel.obj
 0002:00003ee0       ??_C@_1M@LOICPMOJ@?$AAb?$AAn?$AA?9?$AAI?$AAN@ 0000000180015ee0     libucrt:lcidtoname_downlevel.obj
 0002:00003ef0       ??_C@_1M@KPKKNEAH@?$AAp?$AAa?$AA?9?$AAI?$AAN@ 0000000180015ef0     libucrt:lcidtoname_downlevel.obj
 0002:00003f00       ??_C@_1M@PJGPPBOG@?$AAg?$AAu?$AA?9?$AAI?$AAN@ 0000000180015f00     libucrt:lcidtoname_downlevel.obj
 0002:00003f10       ??_C@_1M@KMKMOPHI@?$AAt?$AAa?$AA?9?$AAI?$AAN@ 0000000180015f10     libucrt:lcidtoname_downlevel.obj
 0002:00003f20       ??_C@_1M@KFEHEPAC@?$AAt?$AAe?$AA?9?$AAI?$AAN@ 0000000180015f20     libucrt:lcidtoname_downlevel.obj
 0002:00003f30       ??_C@_1M@CDCLMGHI@?$AAk?$AAn?$AA?9?$AAI?$AAN@ 0000000180015f30     libucrt:lcidtoname_downlevel.obj
 0002:00003f40       ??_C@_1M@MIODLDKF@?$AAm?$AAl?$AA?9?$AAI?$AAN@ 0000000180015f40     libucrt:lcidtoname_downlevel.obj
 0002:00003f50       ??_C@_1M@PBIEACPO@?$AAm?$AAr?$AA?9?$AAI?$AAN@ 0000000180015f50     libucrt:lcidtoname_downlevel.obj
 0002:00003f60       ??_C@_1M@NIDEAGPH@?$AAs?$AAa?$AA?9?$AAI?$AAN@ 0000000180015f60     libucrt:lcidtoname_downlevel.obj
 0002:00003f70       ??_C@_1M@FHIHCBIO@?$AAm?$AAn?$AA?9?$AAM?$AAN@ 0000000180015f70     libucrt:lcidtoname_downlevel.obj
 0002:00003f80       ??_C@_1M@JAIJPENP@?$AAc?$AAy?$AA?9?$AAG?$AAB@ 0000000180015f80     libucrt:lcidtoname_downlevel.obj
 0002:00003f90       ??_C@_1M@PHGFBEPN@?$AAg?$AAl?$AA?9?$AAE?$AAS@ 0000000180015f90     libucrt:lcidtoname_downlevel.obj
 0002:00003fa0       ??_C@_1O@KPIPDNCP@?$AAk?$AAo?$AAk?$AA?9?$AAI?$AAN@ 0000000180015fa0     libucrt:lcidtoname_downlevel.obj
 0002:00003fb0       ??_C@_1O@KNHJLDJA@?$AAs?$AAy?$AAr?$AA?9?$AAS?$AAY@ 0000000180015fb0     libucrt:lcidtoname_downlevel.obj
 0002:00003fc0       ??_C@_1O@MKEKBLAH@?$AAd?$AAi?$AAv?$AA?9?$AAM?$AAV@ 0000000180015fc0     libucrt:lcidtoname_downlevel.obj
 0002:00003fd0       ??_C@_1O@OHDCKDDF@?$AAq?$AAu?$AAz?$AA?9?$AAB?$AAO@ 0000000180015fd0     libucrt:lcidtoname_downlevel.obj
 0002:00003fe0       ??_C@_1M@LEPJNLFD@?$AAn?$AAs?$AA?9?$AAZ?$AAA@ 0000000180015fe0     libucrt:lcidtoname_downlevel.obj
 0002:00003ff0       ??_C@_1M@OMLEIIJB@?$AAm?$AAi?$AA?9?$AAN?$AAZ@ 0000000180015ff0     libucrt:lcidtoname_downlevel.obj
 0002:00004000       ??_C@_1M@PMPEAILG@?$AAa?$AAr?$AA?9?$AAI?$AAQ@ 0000000180016000     libucrt:lcidtoname_downlevel.obj
 0002:00004010       ??_C@_1M@CNKPNOEE@?$AAd?$AAe?$AA?9?$AAC?$AAH@ 0000000180016010     libucrt:lcidtoname_downlevel.obj
 0002:00004020       ??_C@_1M@LKMGMLKO@?$AAe?$AAn?$AA?9?$AAG?$AAB@ 0000000180016020     libucrt:lcidtoname_downlevel.obj
 0002:00004030       ??_C@_1M@PGKJFFGL@?$AAe?$AAs?$AA?9?$AAM?$AAX@ 0000000180016030     libucrt:lcidtoname_downlevel.obj
 0002:00004040       ??_C@_1M@DNNANBDC@?$AAf?$AAr?$AA?9?$AAB?$AAE@ 0000000180016040     libucrt:lcidtoname_downlevel.obj
 0002:00004050       ??_C@_1M@HLGMDFHM@?$AAi?$AAt?$AA?9?$AAC?$AAH@ 0000000180016050     libucrt:lcidtoname_downlevel.obj
 0002:00004060       ??_C@_1M@CLLBGJH@?$AAn?$AAl?$AA?9?$AAB?$AAE@ 0000000180016060     libucrt:lcidtoname_downlevel.obj
 0002:00004070       ??_C@_1M@BODBOGLF@?$AAn?$AAn?$AA?9?$AAN?$AAO@ 0000000180016070     libucrt:lcidtoname_downlevel.obj
 0002:00004080       ??_C@_1M@HFFAHKAD@?$AAp?$AAt?$AA?9?$AAP?$AAT@ 0000000180016080     libucrt:lcidtoname_downlevel.obj
 0002:00004090       ??_C@_1BG@LNOAKHIE@?$AAs?$AAr?$AA?9?$AAS?$AAP?$AA?9?$AAL?$AAa?$AAt?$AAn@ 0000000180016090     libucrt:lcidtoname_downlevel.obj
 0002:000040a8       ??_C@_1M@HBMHBGAK@?$AAs?$AAv?$AA?9?$AAF?$AAI@ 00000001800160a8     libucrt:lcidtoname_downlevel.obj
 0002:000040b8       ??_C@_1BG@DGCJGJBE@?$AAa?$AAz?$AA?9?$AAA?$AAZ?$AA?9?$AAC?$AAy?$AAr?$AAl@ 00000001800160b8     libucrt:lcidtoname_downlevel.obj
 0002:000040d0       ??_C@_1M@KEJDAAHB@?$AAs?$AAe?$AA?9?$AAS?$AAE@ 00000001800160d0     libucrt:lcidtoname_downlevel.obj
 0002:000040e0       ??_C@_1M@HEIBJJAD@?$AAm?$AAs?$AA?9?$AAB?$AAN@ 00000001800160e0     libucrt:lcidtoname_downlevel.obj
 0002:000040f0       ??_C@_1BG@PBGJMCEM@?$AAu?$AAz?$AA?9?$AAU?$AAZ?$AA?9?$AAC?$AAy?$AAr?$AAl@ 00000001800160f0     libucrt:lcidtoname_downlevel.obj
 0002:00004108       ??_C@_1O@LAOBCMDF@?$AAq?$AAu?$AAz?$AA?9?$AAE?$AAC@ 0000000180016108     libucrt:lcidtoname_downlevel.obj
 0002:00004118       ??_C@_1M@POEEMAIO@?$AAa?$AAr?$AA?9?$AAE?$AAG@ 0000000180016118     libucrt:lcidtoname_downlevel.obj
 0002:00004128       ??_C@_1M@EFAKDEDL@?$AAz?$AAh?$AA?9?$AAH?$AAK@ 0000000180016128     libucrt:lcidtoname_downlevel.obj
 0002:00004138       ??_C@_1M@HKKIJHGI@?$AAd?$AAe?$AA?9?$AAA?$AAT@ 0000000180016138     libucrt:lcidtoname_downlevel.obj
 0002:00004148       ??_C@_1M@KBFBEHJF@?$AAe?$AAn?$AA?9?$AAA?$AAU@ 0000000180016148     libucrt:lcidtoname_downlevel.obj
 0002:00004158       ??_C@_1M@MNPLFAAH@?$AAe?$AAs?$AA?9?$AAE?$AAS@ 0000000180016158     libucrt:lcidtoname_downlevel.obj
 0002:00004168       ??_C@_1M@HJOOJFMA@?$AAf?$AAr?$AA?9?$AAC?$AAA@ 0000000180016168     libucrt:lcidtoname_downlevel.obj
 0002:00004178       ??_C@_1BG@JPOFPNAB@?$AAs?$AAr?$AA?9?$AAS?$AAP?$AA?9?$AAC?$AAy?$AAr?$AAl@ 0000000180016178     libucrt:lcidtoname_downlevel.obj
 0002:00004190       ??_C@_1M@LNFOCMOB@?$AAs?$AAe?$AA?9?$AAF?$AAI@ 0000000180016190     libucrt:lcidtoname_downlevel.obj
 0002:000041a0       ??_C@_1O@MGJBOAMB@?$AAq?$AAu?$AAz?$AA?9?$AAP?$AAE@ 00000001800161a0     libucrt:lcidtoname_downlevel.obj
 0002:000041b0       ??_C@_1M@GJINLBOK@?$AAa?$AAr?$AA?9?$AAL?$AAY@ 00000001800161b0     libucrt:lcidtoname_downlevel.obj
 0002:000041c0       ??_C@_1M@GGMNHJNL@?$AAz?$AAh?$AA?9?$AAS?$AAG@ 00000001800161c0     libucrt:lcidtoname_downlevel.obj
 0002:000041d0       ??_C@_1M@HOIKODND@?$AAd?$AAe?$AA?9?$AAL?$AAU@ 00000001800161d0     libucrt:lcidtoname_downlevel.obj
 0002:000041e0       ??_C@_1M@DDOCCGFG@?$AAe?$AAn?$AA?9?$AAC?$AAA@ 00000001800161e0     libucrt:lcidtoname_downlevel.obj
 0002:000041f0       ??_C@_1M@BNOEMJLF@?$AAe?$AAs?$AA?9?$AAG?$AAT@ 00000001800161f0     libucrt:lcidtoname_downlevel.obj
 0002:00004200       ??_C@_1M@EOGNKEK@?$AAf?$AAr?$AA?9?$AAC?$AAH@ 0000000180016200     libucrt:lcidtoname_downlevel.obj
 0002:00004210       ??_C@_1M@FLIDJFHL@?$AAh?$AAr?$AA?9?$AAB?$AAA@ 0000000180016210     libucrt:lcidtoname_downlevel.obj
 0002:00004220       ??_C@_1O@FMCELNAJ@?$AAs?$AAm?$AAj?$AA?9?$AAN?$AAO@ 0000000180016220     libucrt:lcidtoname_downlevel.obj
 0002:00004230       ??_C@_1M@JHGLJMGJ@?$AAa?$AAr?$AA?9?$AAD?$AAZ@ 0000000180016230     libucrt:lcidtoname_downlevel.obj
 0002:00004240       ??_C@_1M@JKKFDCNP@?$AAz?$AAh?$AA?9?$AAM?$AAO@ 0000000180016240     libucrt:lcidtoname_downlevel.obj
 0002:00004250       ??_C@_1M@GEEFALPE@?$AAd?$AAe?$AA?9?$AAL?$AAI@ 0000000180016250     libucrt:lcidtoname_downlevel.obj
 0002:00004260       ??_C@_1M@IGEOFBG@?$AAe?$AAn?$AA?9?$AAN?$AAZ@ 0000000180016260     libucrt:lcidtoname_downlevel.obj
 0002:00004270       ??_C@_1M@KDBONEHP@?$AAe?$AAs?$AA?9?$AAC?$AAR@ 0000000180016270     libucrt:lcidtoname_downlevel.obj
 0002:00004280       ??_C@_1M@FHMDOHNN@?$AAf?$AAr?$AA?9?$AAL?$AAU@ 0000000180016280     libucrt:lcidtoname_downlevel.obj
 0002:00004290       ??_C@_1BG@NFKKMAFG@?$AAb?$AAs?$AA?9?$AAB?$AAA?$AA?9?$AAL?$AAa?$AAt?$AAn@ 0000000180016290     libucrt:lcidtoname_downlevel.obj
 0002:000042a8       ??_C@_1O@IMNBEMCI@?$AAs?$AAm?$AAj?$AA?9?$AAS?$AAE@ 00000001800162a8     libucrt:lcidtoname_downlevel.obj
 0002:000042b8       ??_C@_1M@DHHMBNDP@?$AAa?$AAr?$AA?9?$AAM?$AAA@ 00000001800162b8     libucrt:lcidtoname_downlevel.obj
 0002:000042c8       ??_C@_1M@BNBLJCGH@?$AAe?$AAn?$AA?9?$AAI?$AAE@ 00000001800162c8     libucrt:lcidtoname_downlevel.obj
 0002:000042d8       ??_C@_1M@GEPAFMDL@?$AAe?$AAs?$AA?9?$AAP?$AAA@ 00000001800162d8     libucrt:lcidtoname_downlevel.obj
 0002:000042e8       ??_C@_1M@OJONDMDL@?$AAf?$AAr?$AA?9?$AAM?$AAC@ 00000001800162e8     libucrt:lcidtoname_downlevel.obj
 0002:000042f8       ??_C@_1BG@OBCNFJB@?$AAs?$AAr?$AA?9?$AAB?$AAA?$AA?9?$AAL?$AAa?$AAt?$AAn@ 00000001800162f8     libucrt:lcidtoname_downlevel.obj
 0002:00004310       ??_C@_1O@KEMEEGPO@?$AAs?$AAm?$AAa?$AA?9?$AAN?$AAO@ 0000000180016310     libucrt:lcidtoname_downlevel.obj
 0002:00004320       ??_C@_1M@ELMGFODK@?$AAa?$AAr?$AA?9?$AAT?$AAN@ 0000000180016320     libucrt:lcidtoname_downlevel.obj
 0002:00004330       ??_C@_1M@BHDLHFAF@?$AAe?$AAn?$AA?9?$AAZ?$AAA@ 0000000180016330     libucrt:lcidtoname_downlevel.obj
 0002:00004340       ??_C@_1M@BMGIGLIF@?$AAe?$AAs?$AA?9?$AAD?$AAO@ 0000000180016340     libucrt:lcidtoname_downlevel.obj
 0002:00004350       ??_C@_1BG@CMBHIPBE@?$AAs?$AAr?$AA?9?$AAB?$AAA?$AA?9?$AAC?$AAy?$AAr?$AAl@ 0000000180016350     libucrt:lcidtoname_downlevel.obj
 0002:00004368       ??_C@_1O@HEDBLHNP@?$AAs?$AAm?$AAa?$AA?9?$AAS?$AAE@ 0000000180016368     libucrt:lcidtoname_downlevel.obj
 0002:00004378       ??_C@_1M@DAGCADIM@?$AAa?$AAr?$AA?9?$AAO?$AAM@ 0000000180016378     libucrt:lcidtoname_downlevel.obj
 0002:00004388       ??_C@_1M@FODLMICG@?$AAe?$AAn?$AA?9?$AAJ?$AAM@ 0000000180016388     libucrt:lcidtoname_downlevel.obj
 0002:00004398       ??_C@_1M@DNMLCIHB@?$AAe?$AAs?$AA?9?$AAV?$AAE@ 0000000180016398     libucrt:lcidtoname_downlevel.obj
 0002:000043a8       ??_C@_1O@EOKHMKJK@?$AAs?$AAm?$AAs?$AA?9?$AAF?$AAI@ 00000001800163a8     libucrt:lcidtoname_downlevel.obj
 0002:000043b8       ??_C@_1M@CAFJMKOF@?$AAa?$AAr?$AA?9?$AAY?$AAE@ 00000001800163b8     libucrt:lcidtoname_downlevel.obj
 0002:000043c8       ??_C@_1M@CBFHIJLI@?$AAe?$AAn?$AA?9?$AAC?$AAB@ 00000001800163c8     libucrt:lcidtoname_downlevel.obj
 0002:000043d8       ??_C@_1M@BGNFLDN@?$AAe?$AAs?$AA?9?$AAC?$AAO@ 00000001800163d8     libucrt:lcidtoname_downlevel.obj
 0002:000043e8       ??_C@_1O@JMPHMAMC@?$AAs?$AAm?$AAn?$AA?9?$AAF?$AAI@ 00000001800163e8     libucrt:lcidtoname_downlevel.obj
 0002:000043f8       ??_C@_1M@JLANABKE@?$AAa?$AAr?$AA?9?$AAS?$AAY@ 00000001800163f8     libucrt:lcidtoname_downlevel.obj
 0002:00004408       ??_C@_1M@HPKGCFGN@?$AAe?$AAn?$AA?9?$AAB?$AAZ@ 0000000180016408     libucrt:lcidtoname_downlevel.obj
 0002:00004418       ??_C@_1M@OLJCMLGM@?$AAe?$AAs?$AA?9?$AAP?$AAE@ 0000000180016418     libucrt:lcidtoname_downlevel.obj
 0002:00004428       ??_C@_1M@MKKGFKLE@?$AAa?$AAr?$AA?9?$AAJ?$AAO@ 0000000180016428     libucrt:lcidtoname_downlevel.obj
 0002:00004438       ??_C@_1M@EKPGLDNI@?$AAe?$AAn?$AA?9?$AAT?$AAT@ 0000000180016438     libucrt:lcidtoname_downlevel.obj
 0002:00004448       ??_C@_1M@OONGHFHE@?$AAe?$AAs?$AA?9?$AAA?$AAR@ 0000000180016448     libucrt:lcidtoname_downlevel.obj
 0002:00004458       ??_C@_1M@OOJFGBHE@?$AAa?$AAr?$AA?9?$AAL?$AAB@ 0000000180016458     libucrt:lcidtoname_downlevel.obj
 0002:00004468       ??_C@_1M@GCEJHNEG@?$AAe?$AAn?$AA?9?$AAZ?$AAW@ 0000000180016468     libucrt:lcidtoname_downlevel.obj
 0002:00004478       ??_C@_1M@JNOCAHJI@?$AAe?$AAs?$AA?9?$AAE?$AAC@ 0000000180016478     libucrt:lcidtoname_downlevel.obj
 0002:00004488       ??_C@_1M@JEFHPGGB@?$AAa?$AAr?$AA?9?$AAK?$AAW@ 0000000180016488     libucrt:lcidtoname_downlevel.obj
 0002:00004498       ??_C@_1M@MLKIBJOJ@?$AAe?$AAn?$AA?9?$AAP?$AAH@ 0000000180016498     libucrt:lcidtoname_downlevel.obj
 0002:000044a8       ??_C@_1M@BDNIPEND@?$AAe?$AAs?$AA?9?$AAC?$AAL@ 00000001800164a8     libucrt:lcidtoname_downlevel.obj
 0002:000044b8       ??_C@_1M@MPNMEKBD@?$AAa?$AAr?$AA?9?$AAA?$AAE@ 00000001800164b8     libucrt:lcidtoname_downlevel.obj
 0002:000044c8       ??_C@_1M@KBJALCPI@?$AAe?$AAs?$AA?9?$AAU?$AAY@ 00000001800164c8     libucrt:lcidtoname_downlevel.obj
 0002:000044d8       ??_C@_1M@LLCCOAGA@?$AAa?$AAr?$AA?9?$AAB?$AAH@ 00000001800164d8     libucrt:lcidtoname_downlevel.obj
 0002:000044e8       ??_C@_1M@PBFNCDEL@?$AAe?$AAs?$AA?9?$AAP?$AAY@ 00000001800164e8     libucrt:lcidtoname_downlevel.obj
 0002:000044f8       ??_C@_1M@EDGINPNP@?$AAa?$AAr?$AA?9?$AAQ?$AAA@ 00000001800164f8     libucrt:lcidtoname_downlevel.obj
 0002:00004508       ??_C@_1M@MKDBIIJI@?$AAe?$AAs?$AA?9?$AAB?$AAO@ 0000000180016508     libucrt:lcidtoname_downlevel.obj
 0002:00004518       ??_C@_1M@CPKKEBLD@?$AAe?$AAs?$AA?9?$AAS?$AAV@ 0000000180016518     libucrt:lcidtoname_downlevel.obj
 0002:00004528       ??_C@_1M@NDBGMMJL@?$AAe?$AAs?$AA?9?$AAH?$AAN@ 0000000180016528     libucrt:lcidtoname_downlevel.obj
 0002:00004538       ??_C@_1M@JIJIBHDP@?$AAe?$AAs?$AA?9?$AAN?$AAI@ 0000000180016538     libucrt:lcidtoname_downlevel.obj
 0002:00004548       ??_C@_1M@CGFMKEEK@?$AAe?$AAs?$AA?9?$AAP?$AAR@ 0000000180016548     libucrt:lcidtoname_downlevel.obj
 0002:00004558       ??_C@_1O@ICJHKIIK@?$AAz?$AAh?$AA?9?$AAC?$AAH?$AAT@ 0000000180016558     libucrt:lcidtoname_downlevel.obj
 0002:00004568       ??_C@_15CLNEJCE@?$AAs?$AAr@ 0000000180016568     libucrt:lcidtoname_downlevel.obj
 0002:000053b0       ??_C@_1M@KAHEKEIG@?$AAa?$AAf?$AA?9?$AAz?$AAa@ 00000001800173b0     libucrt:lcidtoname_downlevel.obj
 0002:000053c0       ??_C@_1M@GIECOABL@?$AAa?$AAr?$AA?9?$AAa?$AAe@ 00000001800173c0     libucrt:lcidtoname_downlevel.obj
 0002:000053d0       ??_C@_1M@BMLMEKGI@?$AAa?$AAr?$AA?9?$AAb?$AAh@ 00000001800173d0     libucrt:lcidtoname_downlevel.obj
 0002:000053e0       ??_C@_1M@DAPFDGGB@?$AAa?$AAr?$AA?9?$AAd?$AAz@ 00000001800173e0     libucrt:lcidtoname_downlevel.obj
 0002:000053f0       ??_C@_1M@FJNKGKIG@?$AAa?$AAr?$AA?9?$AAe?$AAg@ 00000001800173f0     libucrt:lcidtoname_downlevel.obj
 0002:00005400       ??_C@_1M@FLGKKCLO@?$AAa?$AAr?$AA?9?$AAi?$AAq@ 0000000180017400     libucrt:lcidtoname_downlevel.obj
 0002:00005410       ??_C@_1M@GNDIPALM@?$AAa?$AAr?$AA?9?$AAj?$AAo@ 0000000180017410     libucrt:lcidtoname_downlevel.obj
 0002:00005420       ??_C@_1M@DDMJFMGJ@?$AAa?$AAr?$AA?9?$AAk?$AAw@ 0000000180017420     libucrt:lcidtoname_downlevel.obj
 0002:00005430       ??_C@_1M@EJALMLHM@?$AAa?$AAr?$AA?9?$AAl?$AAb@ 0000000180017430     libucrt:lcidtoname_downlevel.obj
 0002:00005440       ??_C@_1M@MOBDBLOC@?$AAa?$AAr?$AA?9?$AAl?$AAy@ 0000000180017440     libucrt:lcidtoname_downlevel.obj
 0002:00005450       ??_C@_1M@JAOCLHDH@?$AAa?$AAr?$AA?9?$AAm?$AAa@ 0000000180017450     libucrt:lcidtoname_downlevel.obj
 0002:00005460       ??_C@_1M@JHPMKJIE@?$AAa?$AAr?$AA?9?$AAo?$AAm@ 0000000180017460     libucrt:lcidtoname_downlevel.obj
 0002:00005470       ??_C@_1M@OEPGHFNH@?$AAa?$AAr?$AA?9?$AAq?$AAa@ 0000000180017470     libucrt:lcidtoname_downlevel.obj
 0002:00005480       ??_C@_1M@KJDONENM@?$AAa?$AAr?$AA?9?$AAs?$AAa@ 0000000180017480     libucrt:lcidtoname_downlevel.obj
 0002:00005490       ??_C@_1M@DMJDKLKM@?$AAa?$AAr?$AA?9?$AAs?$AAy@ 0000000180017490     libucrt:lcidtoname_downlevel.obj
 0002:000054a0       ??_C@_1M@OMFIPEDC@?$AAa?$AAr?$AA?9?$AAt?$AAn@ 00000001800174a0     libucrt:lcidtoname_downlevel.obj
 0002:000054b0       ??_C@_1M@IHMHGAON@?$AAa?$AAr?$AA?9?$AAy?$AAe@ 00000001800174b0     libucrt:lcidtoname_downlevel.obj
 0002:000054c0       ??_C@_1BG@KDCPGJGB@?$AAa?$AAz?$AA?9?$AAa?$AAz?$AA?9?$AAc?$AAy?$AAr?$AAl@ 00000001800174c0     libucrt:lcidtoname_downlevel.obj
 0002:000054d8       ??_C@_1BG@IBCKDDOE@?$AAa?$AAz?$AA?9?$AAa?$AAz?$AA?9?$AAl?$AAa?$AAt?$AAn@ 00000001800174d8     libucrt:lcidtoname_downlevel.obj
 0002:000054f0       ??_C@_1M@EGPFDCPD@?$AAb?$AAe?$AA?9?$AAb?$AAy@ 00000001800174f0     libucrt:lcidtoname_downlevel.obj
 0002:00005500       ??_C@_1M@PCMGMCGC@?$AAb?$AAg?$AA?9?$AAb?$AAg@ 0000000180017500     libucrt:lcidtoname_downlevel.obj
 0002:00005510       ??_C@_1M@BJBMFGOB@?$AAb?$AAn?$AA?9?$AAi?$AAn@ 0000000180017510     libucrt:lcidtoname_downlevel.obj
 0002:00005520       ??_C@_1BG@EAKMMACD@?$AAb?$AAs?$AA?9?$AAb?$AAa?$AA?9?$AAl?$AAa?$AAt?$AAn@ 0000000180017520     libucrt:lcidtoname_downlevel.obj
 0002:00005538       ??_C@_1M@KGADAODK@?$AAc?$AAa?$AA?9?$AAe?$AAs@ 0000000180017538     libucrt:lcidtoname_downlevel.obj
 0002:00005548       ??_C@_1M@COAJPDHI@?$AAc?$AAs?$AA?9?$AAc?$AAz@ 0000000180017548     libucrt:lcidtoname_downlevel.obj
 0002:00005558       ??_C@_1M@DHBHFONH@?$AAc?$AAy?$AA?9?$AAg?$AAb@ 0000000180017558     libucrt:lcidtoname_downlevel.obj
 0002:00005568       ??_C@_1M@IMGKELGA@?$AAd?$AAa?$AA?9?$AAd?$AAk@ 0000000180017568     libucrt:lcidtoname_downlevel.obj
 0002:00005578       ??_C@_1M@NNDGDNGA@?$AAd?$AAe?$AA?9?$AAa?$AAt@ 0000000180017578     libucrt:lcidtoname_downlevel.obj
 0002:00005588       ??_C@_1M@IKDBHEEM@?$AAd?$AAe?$AA?9?$AAc?$AAh@ 0000000180017588     libucrt:lcidtoname_downlevel.obj
 0002:00005598       ??_C@_1M@GFFOJMCJ@?$AAd?$AAe?$AA?9?$AAd?$AAe@ 0000000180017598     libucrt:lcidtoname_downlevel.obj
 0002:000055a8       ??_C@_1M@MDNLKBPM@?$AAd?$AAe?$AA?9?$AAl?$AAi@ 00000001800175a8     libucrt:lcidtoname_downlevel.obj
 0002:000055b8       ??_C@_1M@NJBEEJNL@?$AAd?$AAe?$AA?9?$AAl?$AAu@ 00000001800175b8     libucrt:lcidtoname_downlevel.obj
 0002:000055c8       ??_C@_1O@GNNELBAP@?$AAd?$AAi?$AAv?$AA?9?$AAm?$AAv@ 00000001800175c8     libucrt:lcidtoname_downlevel.obj
 0002:000055d8       ??_C@_1M@EJLEOGAE@?$AAe?$AAl?$AA?9?$AAg?$AAr@ 00000001800175d8     libucrt:lcidtoname_downlevel.obj
 0002:000055e8       ??_C@_1M@GMPONJN@?$AAe?$AAn?$AA?9?$AAa?$AAu@ 00000001800175e8     libucrt:lcidtoname_downlevel.obj
 0002:000055f8       ??_C@_1M@NIDIIPGF@?$AAe?$AAn?$AA?9?$AAb?$AAz@ 00000001800175f8     libucrt:lcidtoname_downlevel.obj
 0002:00005608       ??_C@_1M@JEHMIMFO@?$AAe?$AAn?$AA?9?$AAc?$AAa@ 0000000180017608     libucrt:lcidtoname_downlevel.obj
 0002:00005618       ??_C@_1M@IGMJCDLA@?$AAe?$AAn?$AA?9?$AAc?$AAb@ 0000000180017618     libucrt:lcidtoname_downlevel.obj
 0002:00005628       ??_C@_1M@BNFIGBKG@?$AAe?$AAn?$AA?9?$AAg?$AAb@ 0000000180017628     libucrt:lcidtoname_downlevel.obj
 0002:00005638       ??_C@_1M@LKIFDIGP@?$AAe?$AAn?$AA?9?$AAi?$AAe@ 0000000180017638     libucrt:lcidtoname_downlevel.obj
 0002:00005648       ??_C@_1M@PJKFGCCO@?$AAe?$AAn?$AA?9?$AAj?$AAm@ 0000000180017648     libucrt:lcidtoname_downlevel.obj
 0002:00005658       ??_C@_1M@KPPKEPBO@?$AAe?$AAn?$AA?9?$AAn?$AAz@ 0000000180017658     libucrt:lcidtoname_downlevel.obj
 0002:00005668       ??_C@_1M@GMDGLDOB@?$AAe?$AAn?$AA?9?$AAp?$AAh@ 0000000180017668     libucrt:lcidtoname_downlevel.obj
 0002:00005678       ??_C@_1M@ONGIBJNA@?$AAe?$AAn?$AA?9?$AAt?$AAt@ 0000000180017678     libucrt:lcidtoname_downlevel.obj
 0002:00005688       ??_C@_1M@LLODPCMM@?$AAe?$AAn?$AA?9?$AAu?$AAs@ 0000000180017688     libucrt:lcidtoname_downlevel.obj
 0002:00005698       ??_C@_1M@LAKFNPAN@?$AAe?$AAn?$AA?9?$AAz?$AAa@ 0000000180017698     libucrt:lcidtoname_downlevel.obj
 0002:000056a8       ??_C@_1M@MFNHNHEO@?$AAe?$AAn?$AA?9?$AAz?$AAw@ 00000001800176a8     libucrt:lcidtoname_downlevel.obj
 0002:000056b8       ??_C@_1M@EJEINPHM@?$AAe?$AAs?$AA?9?$AAa?$AAr@ 00000001800176b8     libucrt:lcidtoname_downlevel.obj
 0002:000056c8       ??_C@_1M@GNKPCCJA@?$AAe?$AAs?$AA?9?$AAb?$AAo@ 00000001800176c8     libucrt:lcidtoname_downlevel.obj
 0002:000056d8       ??_C@_1M@LEEGFONL@?$AAe?$AAs?$AA?9?$AAc?$AAl@ 00000001800176d8     libucrt:lcidtoname_downlevel.obj
 0002:000056e8       ??_C@_1M@KGPDPBDF@?$AAe?$AAs?$AA?9?$AAc?$AAo@ 00000001800176e8     libucrt:lcidtoname_downlevel.obj
 0002:000056f8       ??_C@_1M@EIAHOHH@?$AAe?$AAs?$AA?9?$AAc?$AAr@ 00000001800176f8     libucrt:lcidtoname_downlevel.obj
 0002:00005708       ??_C@_1M@LLPGMBIN@?$AAe?$AAs?$AA?9?$AAd?$AAo@ 0000000180017708     libucrt:lcidtoname_downlevel.obj
 0002:00005718       ??_C@_1M@DKHMKNJA@?$AAe?$AAs?$AA?9?$AAe?$AAc@ 0000000180017718     libucrt:lcidtoname_downlevel.obj
 0002:00005728       ??_C@_1M@GKGFPKAP@?$AAe?$AAs?$AA?9?$AAe?$AAs@ 0000000180017728     libucrt:lcidtoname_downlevel.obj
 0002:00005738       ??_C@_1M@LKHKGDLN@?$AAe?$AAs?$AA?9?$AAg?$AAt@ 0000000180017738     libucrt:lcidtoname_downlevel.obj
 0002:00005748       ??_C@_1M@HEIIGGJD@?$AAe?$AAs?$AA?9?$AAh?$AAn@ 0000000180017748     libucrt:lcidtoname_downlevel.obj
 0002:00005758       ??_C@_1M@FBDHPPGD@?$AAe?$AAs?$AA?9?$AAm?$AAx@ 0000000180017758     libucrt:lcidtoname_downlevel.obj
 0002:00005768       ??_C@_1M@DPAGLNDH@?$AAe?$AAs?$AA?9?$AAn?$AAi@ 0000000180017768     libucrt:lcidtoname_downlevel.obj
 0002:00005778       ??_C@_1M@MDGOPGDD@?$AAe?$AAs?$AA?9?$AAp?$AAa@ 0000000180017778     libucrt:lcidtoname_downlevel.obj
 0002:00005788       ??_C@_1M@EMAMGBGE@?$AAe?$AAs?$AA?9?$AAp?$AAe@ 0000000180017788     libucrt:lcidtoname_downlevel.obj
 0002:00005798       ??_C@_1M@IBMCAOEC@?$AAe?$AAs?$AA?9?$AAp?$AAr@ 0000000180017798     libucrt:lcidtoname_downlevel.obj
 0002:000057a8       ??_C@_1M@FGMDIJED@?$AAe?$AAs?$AA?9?$AAp?$AAy@ 00000001800177a8     libucrt:lcidtoname_downlevel.obj
 0002:000057b8       ??_C@_1M@IIDEOLLL@?$AAe?$AAs?$AA?9?$AAs?$AAv@ 00000001800177b8     libucrt:lcidtoname_downlevel.obj
 0002:000057c8       ??_C@_1M@GAOBIPA@?$AAe?$AAs?$AA?9?$AAu?$AAy@ 00000001800177c8     libucrt:lcidtoname_downlevel.obj
 0002:000057d8       ??_C@_1M@JKFFICHJ@?$AAe?$AAs?$AA?9?$AAv?$AAe@ 00000001800177d8     libucrt:lcidtoname_downlevel.obj
 0002:000057e8       ??_C@_1M@PNMLOJDF@?$AAe?$AAt?$AA?9?$AAe?$AAe@ 00000001800177e8     libucrt:lcidtoname_downlevel.obj
 0002:000057f8       ??_C@_1M@GHHLIKEI@?$AAe?$AAu?$AA?9?$AAe?$AAs@ 00000001800177f8     libucrt:lcidtoname_downlevel.obj
 0002:00005808       ??_C@_1M@PBNONODE@?$AAf?$AAa?$AA?9?$AAi?$AAr@ 0000000180017808     libucrt:lcidtoname_downlevel.obj
 0002:00005818       ??_C@_1M@JEEHPMIL@?$AAf?$AAi?$AA?9?$AAf?$AAi@ 0000000180017818     libucrt:lcidtoname_downlevel.obj
 0002:00005828       ??_C@_1M@LMDCNDBA@?$AAf?$AAo?$AA?9?$AAf?$AAo@ 0000000180017828     libucrt:lcidtoname_downlevel.obj
 0002:00005838       ??_C@_1M@JKEOHLDK@?$AAf?$AAr?$AA?9?$AAb?$AAe@ 0000000180017838     libucrt:lcidtoname_downlevel.obj
 0002:00005848       ??_C@_1M@NOHADPMI@?$AAf?$AAr?$AA?9?$AAc?$AAa@ 0000000180017848     libucrt:lcidtoname_downlevel.obj
 0002:00005858       ??_C@_1M@KDHIHAEC@?$AAf?$AAr?$AA?9?$AAc?$AAh@ 0000000180017858     libucrt:lcidtoname_downlevel.obj
 0002:00005868       ??_C@_1M@MMBBFGAK@?$AAf?$AAr?$AA?9?$AAf?$AAr@ 0000000180017868     libucrt:lcidtoname_downlevel.obj
 0002:00005878       ??_C@_1M@PAFNENNF@?$AAf?$AAr?$AA?9?$AAl?$AAu@ 0000000180017878     libucrt:lcidtoname_downlevel.obj
 0002:00005888       ??_C@_1M@EOHDJGDD@?$AAf?$AAr?$AA?9?$AAm?$AAc@ 0000000180017888     libucrt:lcidtoname_downlevel.obj
 0002:00005898       ??_C@_1M@FAPLLOPF@?$AAg?$AAl?$AA?9?$AAe?$AAs@ 0000000180017898     libucrt:lcidtoname_downlevel.obj
 0002:000058a8       ??_C@_1M@FOPBFLOO@?$AAg?$AAu?$AA?9?$AAi?$AAn@ 00000001800178a8     libucrt:lcidtoname_downlevel.obj
 0002:000058b8       ??_C@_1M@KBMCINPM@?$AAh?$AAe?$AA?9?$AAi?$AAl@ 00000001800178b8     libucrt:lcidtoname_downlevel.obj
 0002:000058c8       ??_C@_1M@BBPHKFPJ@?$AAh?$AAi?$AA?9?$AAi?$AAn@ 00000001800178c8     libucrt:lcidtoname_downlevel.obj
 0002:000058d8       ??_C@_1M@PMBNDPHD@?$AAh?$AAr?$AA?9?$AAb?$AAa@ 00000001800178d8     libucrt:lcidtoname_downlevel.obj
 0002:000058e8       ??_C@_1M@BPCKOEGE@?$AAh?$AAr?$AA?9?$AAh?$AAr@ 00000001800178e8     libucrt:lcidtoname_downlevel.obj
 0002:000058f8       ??_C@_1M@GACBMHKE@?$AAh?$AAu?$AA?9?$AAh?$AAu@ 00000001800178f8     libucrt:lcidtoname_downlevel.obj
 0002:00005908       ??_C@_1M@MILPAJJC@?$AAh?$AAy?$AA?9?$AAa?$AAm@ 0000000180017908     libucrt:lcidtoname_downlevel.obj
 0002:00005918       ??_C@_1M@BABBICEC@?$AAi?$AAd?$AA?9?$AAi?$AAd@ 0000000180017918     libucrt:lcidtoname_downlevel.obj
 0002:00005928       ??_C@_1M@BIKNHHPF@?$AAi?$AAs?$AA?9?$AAi?$AAs@ 0000000180017928     libucrt:lcidtoname_downlevel.obj
 0002:00005938       ??_C@_1M@NMPCJPHE@?$AAi?$AAt?$AA?9?$AAc?$AAh@ 0000000180017938     libucrt:lcidtoname_downlevel.obj
 0002:00005948       ??_C@_1M@GHKGFEDF@?$AAi?$AAt?$AA?9?$AAi?$AAt@ 0000000180017948     libucrt:lcidtoname_downlevel.obj
 0002:00005958       ??_C@_1M@NIEJCJJA@?$AAj?$AAa?$AA?9?$AAj?$AAp@ 0000000180017958     libucrt:lcidtoname_downlevel.obj
 0002:00005968       ??_C@_1M@JILFNBIM@?$AAk?$AAa?$AA?9?$AAg?$AAe@ 0000000180017968     libucrt:lcidtoname_downlevel.obj
 0002:00005978       ??_C@_1M@PACPMGPH@?$AAk?$AAk?$AA?9?$AAk?$AAz@ 0000000180017978     libucrt:lcidtoname_downlevel.obj
 0002:00005988       ??_C@_1M@IELFGMHA@?$AAk?$AAn?$AA?9?$AAi?$AAn@ 0000000180017988     libucrt:lcidtoname_downlevel.obj
 0002:00005998       ??_C@_1O@IBBJHCH@?$AAk?$AAo?$AAk?$AA?9?$AAi?$AAn@ 0000000180017998     libucrt:lcidtoname_downlevel.obj
 0002:000059a8       ??_C@_1M@DMHAEOGC@?$AAk?$AAo?$AA?9?$AAk?$AAr@ 00000001800179a8     libucrt:lcidtoname_downlevel.obj
 0002:000059b8       ??_C@_1M@HBAHBIGA@?$AAk?$AAy?$AA?9?$AAk?$AAg@ 00000001800179b8     libucrt:lcidtoname_downlevel.obj
 0002:000059c8       ??_C@_1M@KPMILCJG@?$AAl?$AAt?$AA?9?$AAl?$AAt@ 00000001800179c8     libucrt:lcidtoname_downlevel.obj
 0002:000059d8       ??_C@_1M@BDEKKCA@?$AAl?$AAv?$AA?9?$AAl?$AAv@ 00000001800179d8     libucrt:lcidtoname_downlevel.obj
 0002:000059e8       ??_C@_1M@ELCKCCJJ@?$AAm?$AAi?$AA?9?$AAn?$AAz@ 00000001800179e8     libucrt:lcidtoname_downlevel.obj
 0002:000059f8       ??_C@_1M@CBOOLAPA@?$AAm?$AAk?$AA?9?$AAm?$AAk@ 00000001800179f8     libucrt:lcidtoname_downlevel.obj
 0002:00005a08       ??_C@_1M@GPHNBJKN@?$AAm?$AAl?$AA?9?$AAi?$AAn@ 0000000180017a08     libucrt:lcidtoname_downlevel.obj
 0002:00005a18       ??_C@_1M@PABJILIG@?$AAm?$AAn?$AA?9?$AAm?$AAn@ 0000000180017a18     libucrt:lcidtoname_downlevel.obj
 0002:00005a28       ??_C@_1M@FGBKKIPG@?$AAm?$AAr?$AA?9?$AAi?$AAn@ 0000000180017a28     libucrt:lcidtoname_downlevel.obj
 0002:00005a38       ??_C@_1M@NDBPDDAL@?$AAm?$AAs?$AA?9?$AAb?$AAn@ 0000000180017a38     libucrt:lcidtoname_downlevel.obj
 0002:00005a48       ??_C@_1M@OPIHOOPI@?$AAm?$AAs?$AA?9?$AAm?$AAy@ 0000000180017a48     libucrt:lcidtoname_downlevel.obj
 0002:00005a58       ??_C@_1M@PPDBCNFM@?$AAm?$AAt?$AA?9?$AAm?$AAt@ 0000000180017a58     libucrt:lcidtoname_downlevel.obj
 0002:00005a68       ??_C@_1M@KDJDKMDD@?$AAn?$AAb?$AA?9?$AAn?$AAo@ 0000000180017a68     libucrt:lcidtoname_downlevel.obj
 0002:00005a78       ??_C@_1M@KFCFLMJP@?$AAn?$AAl?$AA?9?$AAb?$AAe@ 0000000180017a78     libucrt:lcidtoname_downlevel.obj
 0002:00005a88       ??_C@_1M@KPOPDDGO@?$AAn?$AAl?$AA?9?$AAn?$AAl@ 0000000180017a88     libucrt:lcidtoname_downlevel.obj
 0002:00005a98       ??_C@_1M@LJKPEMLN@?$AAn?$AAn?$AA?9?$AAn?$AAo@ 0000000180017a98     libucrt:lcidtoname_downlevel.obj
 0002:00005aa8       ??_C@_1M@BDGHHBFL@?$AAn?$AAs?$AA?9?$AAz?$AAa@ 0000000180017aa8     libucrt:lcidtoname_downlevel.obj
 0002:00005ab8       ??_C@_1M@IDEHOAP@?$AAp?$AAa?$AA?9?$AAi?$AAn@ 0000000180017ab8     libucrt:lcidtoname_downlevel.obj
 0002:00005ac8       ??_C@_1M@HDBKGOGH@?$AAp?$AAl?$AA?9?$AAp?$AAl@ 0000000180017ac8     libucrt:lcidtoname_downlevel.obj
 0002:00005ad8       ??_C@_1M@LJLLCMEH@?$AAp?$AAt?$AA?9?$AAb?$AAr@ 0000000180017ad8     libucrt:lcidtoname_downlevel.obj
 0002:00005ae8       ??_C@_1M@NCMONAAL@?$AAp?$AAt?$AA?9?$AAp?$AAt@ 0000000180017ae8     libucrt:lcidtoname_downlevel.obj
 0002:00005af8       ??_C@_1O@EAKMAJDN@?$AAq?$AAu?$AAz?$AA?9?$AAb?$AAo@ 0000000180017af8     libucrt:lcidtoname_downlevel.obj
 0002:00005b08       ??_C@_1O@BHHPIGDN@?$AAq?$AAu?$AAz?$AA?9?$AAe?$AAc@ 0000000180017b08     libucrt:lcidtoname_downlevel.obj
 0002:00005b18       ??_C@_1O@GBAPEKMJ@?$AAq?$AAu?$AAz?$AA?9?$AAp?$AAe@ 0000000180017b18     libucrt:lcidtoname_downlevel.obj
 0002:00005b28       ??_C@_1M@CLGLEFBO@?$AAr?$AAo?$AA?9?$AAr?$AAo@ 0000000180017b28     libucrt:lcidtoname_downlevel.obj
 0002:00005b38       ??_C@_1M@CEEDODME@?$AAr?$AAu?$AA?9?$AAr?$AAu@ 0000000180017b38     libucrt:lcidtoname_downlevel.obj
 0002:00005b48       ??_C@_1M@HPKKKMPP@?$AAs?$AAa?$AA?9?$AAi?$AAn@ 0000000180017b48     libucrt:lcidtoname_downlevel.obj
 0002:00005b58       ??_C@_1M@BKMAIGOJ@?$AAs?$AAe?$AA?9?$AAf?$AAi@ 0000000180017b58     libucrt:lcidtoname_downlevel.obj
 0002:00005b68       ??_C@_1M@NDPIFLFI@?$AAs?$AAe?$AA?9?$AAn?$AAo@ 0000000180017b68     libucrt:lcidtoname_downlevel.obj
 0002:00005b78       ??_C@_1M@DANKKHJ@?$AAs?$AAe?$AA?9?$AAs?$AAe@ 0000000180017b78     libucrt:lcidtoname_downlevel.obj
 0002:00005b88       ??_C@_1M@PNBLONPJ@?$AAs?$AAk?$AA?9?$AAs?$AAk@ 0000000180017b88     libucrt:lcidtoname_downlevel.obj
 0002:00005b98       ??_C@_1M@LFMODOAL@?$AAs?$AAl?$AA?9?$AAs?$AAi@ 0000000180017b98     libucrt:lcidtoname_downlevel.obj
 0002:00005ba8       ??_C@_1O@DFKOMPG@?$AAs?$AAm?$AAa?$AA?9?$AAn?$AAo@ 0000000180017ba8     libucrt:lcidtoname_downlevel.obj
 0002:00005bb8       ??_C@_1O@NDKPBNNH@?$AAs?$AAm?$AAa?$AA?9?$AAs?$AAe@ 0000000180017bb8     libucrt:lcidtoname_downlevel.obj
 0002:00005bc8       ??_C@_1O@PLLKBHAB@?$AAs?$AAm?$AAj?$AA?9?$AAn?$AAo@ 0000000180017bc8     libucrt:lcidtoname_downlevel.obj
 0002:00005bd8       ??_C@_1O@CLEPOGCA@?$AAs?$AAm?$AAj?$AA?9?$AAs?$AAe@ 0000000180017bd8     libucrt:lcidtoname_downlevel.obj
 0002:00005be8       ??_C@_1O@DLGJGKMK@?$AAs?$AAm?$AAn?$AA?9?$AAf?$AAi@ 0000000180017be8     libucrt:lcidtoname_downlevel.obj
 0002:00005bf8       ??_C@_1O@OJDJGAJC@?$AAs?$AAm?$AAs?$AA?9?$AAf?$AAi@ 0000000180017bf8     libucrt:lcidtoname_downlevel.obj
 0002:00005c08       ??_C@_1M@BOFOGHPB@?$AAs?$AAq?$AA?9?$AAa?$AAl@ 0000000180017c08     libucrt:lcidtoname_downlevel.obj
 0002:00005c18       ??_C@_1BG@LJBBIPGB@?$AAs?$AAr?$AA?9?$AAb?$AAa?$AA?9?$AAc?$AAy?$AAr?$AAl@ 0000000180017c18     libucrt:lcidtoname_downlevel.obj
 0002:00005c30       ??_C@_1BG@JLBENFOE@?$AAs?$AAr?$AA?9?$AAb?$AAa?$AA?9?$AAl?$AAa?$AAt?$AAn@ 0000000180017c30     libucrt:lcidtoname_downlevel.obj
 0002:00005c48       ??_C@_1BG@KODPNHE@?$AAs?$AAr?$AA?9?$AAs?$AAp?$AA?9?$AAc?$AAy?$AAr?$AAl@ 0000000180017c48     libucrt:lcidtoname_downlevel.obj
 0002:00005c60       ??_C@_1BG@CIOGKHPB@?$AAs?$AAr?$AA?9?$AAs?$AAp?$AA?9?$AAl?$AAa?$AAt?$AAn@ 0000000180017c60     libucrt:lcidtoname_downlevel.obj
 0002:00005c78       ??_C@_1M@NGFJLMAC@?$AAs?$AAv?$AA?9?$AAf?$AAi@ 0000000180017c78     libucrt:lcidtoname_downlevel.obj
 0002:00005c88       ??_C@_1M@MPJEJAJC@?$AAs?$AAv?$AA?9?$AAs?$AAe@ 0000000180017c88     libucrt:lcidtoname_downlevel.obj
 0002:00005c98       ??_C@_1M@MPNDHLFK@?$AAs?$AAw?$AA?9?$AAk?$AAe@ 0000000180017c98     libucrt:lcidtoname_downlevel.obj
 0002:00005ca8       ??_C@_1O@KOHBJJI@?$AAs?$AAy?$AAr?$AA?9?$AAs?$AAy@ 0000000180017ca8     libucrt:lcidtoname_downlevel.obj
 0002:00005cb8       ??_C@_1M@LDCEFHA@?$AAt?$AAa?$AA?9?$AAi?$AAn@ 0000000180017cb8     libucrt:lcidtoname_downlevel.obj
 0002:00005cc8       ??_C@_1M@CNJOFAK@?$AAt?$AAe?$AA?9?$AAi?$AAn@ 0000000180017cc8     libucrt:lcidtoname_downlevel.obj
 0002:00005cd8       ??_C@_1M@GNAECACD@?$AAt?$AAh?$AA?9?$AAt?$AAh@ 0000000180017cd8     libucrt:lcidtoname_downlevel.obj
 0002:00005ce8       ??_C@_1M@CHBIHOJO@?$AAt?$AAn?$AA?9?$AAz?$AAa@ 0000000180017ce8     libucrt:lcidtoname_downlevel.obj
 0002:00005cf8       ??_C@_1M@GCCMIGPJ@?$AAt?$AAr?$AA?9?$AAt?$AAr@ 0000000180017cf8     libucrt:lcidtoname_downlevel.obj
 0002:00005d08       ??_C@_1M@CELMCNBK@?$AAt?$AAt?$AA?9?$AAr?$AAu@ 0000000180017d08     libucrt:lcidtoname_downlevel.obj
 0002:00005d18       ??_C@_1M@KLMCELGA@?$AAu?$AAk?$AA?9?$AAu?$AAa@ 0000000180017d18     libucrt:lcidtoname_downlevel.obj
 0002:00005d28       ??_C@_1M@EPAJJAJF@?$AAu?$AAr?$AA?9?$AAp?$AAk@ 0000000180017d28     libucrt:lcidtoname_downlevel.obj
 0002:00005d38       ??_C@_1BG@GEGPMCDJ@?$AAu?$AAz?$AA?9?$AAu?$AAz?$AA?9?$AAc?$AAy?$AAr?$AAl@ 0000000180017d38     libucrt:lcidtoname_downlevel.obj
 0002:00005d50       ??_C@_1BG@EGGKJILM@?$AAu?$AAz?$AA?9?$AAu?$AAz?$AA?9?$AAl?$AAa?$AAt?$AAn@ 0000000180017d50     libucrt:lcidtoname_downlevel.obj
 0002:00005d68       ??_C@_1M@GFOCLFF@?$AAv?$AAi?$AA?9?$AAv?$AAn@ 0000000180017d68     libucrt:lcidtoname_downlevel.obj
 0002:00005d78       ??_C@_1M@CPAMEDFI@?$AAx?$AAh?$AA?9?$AAz?$AAa@ 0000000180017d78     libucrt:lcidtoname_downlevel.obj
 0002:00005d88       ??_C@_1O@EBKIFIGN@?$AAz?$AAh?$AA?9?$AAc?$AAh?$AAs@ 0000000180017d88     libucrt:lcidtoname_downlevel.obj
 0002:00005d98       ??_C@_1O@NMHPGANE@?$AAz?$AAh?$AA?9?$AAc?$AAh?$AAt@ 0000000180017d98     libucrt:lcidtoname_downlevel.obj
 0002:00005da8       ??_C@_1M@LPINJOMC@?$AAz?$AAh?$AA?9?$AAc?$AAn@ 0000000180017da8     libucrt:lcidtoname_downlevel.obj
 0002:00005db8       ??_C@_1M@OCJEJODD@?$AAz?$AAh?$AA?9?$AAh?$AAk@ 0000000180017db8     libucrt:lcidtoname_downlevel.obj
 0002:00005dc8       ??_C@_1M@DNDLJINH@?$AAz?$AAh?$AA?9?$AAm?$AAo@ 0000000180017dc8     libucrt:lcidtoname_downlevel.obj
 0002:00005dd8       ??_C@_1M@MBFDNDND@?$AAz?$AAh?$AA?9?$AAs?$AAg@ 0000000180017dd8     libucrt:lcidtoname_downlevel.obj
 0002:00005de8       ??_C@_1M@IMEPLEPE@?$AAz?$AAh?$AA?9?$AAt?$AAw@ 0000000180017de8     libucrt:lcidtoname_downlevel.obj
 0002:00005df8       ??_C@_1M@BBGHNHJP@?$AAz?$AAu?$AA?9?$AAz?$AAa@ 0000000180017df8     libucrt:lcidtoname_downlevel.obj
 0002:00006080       ??_C@_1BA@BALFACEM@?$AAC?$AAO?$AAN?$AAO?$AAU?$AAT?$AA$@ 0000000180018080     libucrt:initcon.obj
 0002:000060d0       __log10_256_lead           00000001800180d0     libucrt:log10_256_lead_tail_table.obj
 0002:000068e0       __log10_256_tail           00000001800188e0     libucrt:log10_256_lead_tail_table.obj
 0002:000070f0       __log_F_inv_qword          00000001800190f0     libucrt:log_f_inv_qword_table.obj
 0002:00007900       ??_C@_0BC@EOODALEL@Unknown?5exception@ 0000000180019900     main.obj
 0002:00007918       ??_C@_0BF@KINCDENJ@bad?5array?5new?5length@ 0000000180019918     main.obj
 0002:00007930       ??_C@_04JHIGEHFN@Temp@     0000000180019930     main.obj
 0002:00007938       ??_C@_06HBIEIEBN@BUTTON@   0000000180019938     main.obj
 0002:00007940       ??_C@_0BA@FOIKENOD@vector?5too?5long@ 0000000180019940     main.obj
 0002:00007950       ?Horizontal_Correction@@3MA 0000000180019950     main.obj
 0002:00007954       ?FOV_Range@@3HA            0000000180019954     main.obj
 0002:00007958       ?aimheight@@3HA            0000000180019958     main.obj
 0002:0000795c       ?Smoothing@@3MA            000000018001995c     main.obj
 0002:00007960       __real@3e490fdb            0000000180019960     main.obj
 0002:00007964       __real@3e800000            0000000180019964     main.obj
 0002:00007968       __real@3f000000            0000000180019968     main.obj
 0002:0000796c       __real@3f800000            000000018001996c     main.obj
 0002:00007970       __real@40000000            0000000180019970     main.obj
 0002:00007974       __real@42aa0000            0000000180019974     main.obj
 0002:00007bd0       ??_C@_05KGFAIMPG@sqrtf@    0000000180019bd0     libucrt:sqrtf.obj
 0002:00007d50       ??_C@_04LAGPAAHP@sinf@     0000000180019d50     libucrt:sincos_special.obj
 0002:00007d58       ??_C@_04OBBKPIAC@cosf@     0000000180019d58     libucrt:sincos_special.obj
 0002:00007d60       __Lcosfarray               0000000180019d60     libucrt:lsincosf_array.obj
 0002:00007d90       __Lsinfarray               0000000180019d90     libucrt:lsincosf_array.obj
 0002:00007db0       __L_2_by_pi_bits           0000000180019db0     libucrt:l2_by_pi_bits.obj
 0002:00007f00       _load_config_used          0000000180019f00     LIBCMT:loadcfg.obj
 0002:00008280       ??_R4logic_error@std@@6B@  000000018001a280     libcpmt:xthrow.obj
 0002:000082a8       ??_R3logic_error@std@@8    000000018001a2a8     libcpmt:xthrow.obj
 0002:000082c0       ??_R2logic_error@std@@8    000000018001a2c0     libcpmt:xthrow.obj
 0002:000082d8       ??_R1A@?0A@EA@logic_error@std@@8 000000018001a2d8     libcpmt:xthrow.obj
 0002:00008300       ??_R4length_error@std@@6B@ 000000018001a300     libcpmt:xthrow.obj
 0002:00008328       ??_R3length_error@std@@8   000000018001a328     libcpmt:xthrow.obj
 0002:00008340       ??_R2length_error@std@@8   000000018001a340     libcpmt:xthrow.obj
 0002:00008360       ??_R1A@?0A@EA@length_error@std@@8 000000018001a360     libcpmt:xthrow.obj
 0002:00008388       ??_R4type_info@@6B@        000000018001a388     LIBCMT:std_type_info_static.obj
 0002:000083b0       ??_R3type_info@@8          000000018001a3b0     LIBCMT:std_type_info_static.obj
 0002:000083c8       ??_R2type_info@@8          000000018001a3c8     LIBCMT:std_type_info_static.obj
 0002:000083d8       ??_R1A@?0A@EA@type_info@@8 000000018001a3d8     LIBCMT:std_type_info_static.obj
 0002:00008400       ??_R4bad_exception@std@@6B@ 000000018001a400     libvcruntime:frame.obj
 0002:00008428       ??_R3bad_exception@std@@8  000000018001a428     libvcruntime:frame.obj
 0002:00008440       ??_R2bad_exception@std@@8  000000018001a440     libvcruntime:frame.obj
 0002:00008458       ??_R1A@?0A@EA@bad_exception@std@@8 000000018001a458     libvcruntime:frame.obj
 0002:00008480       ??_R4exception@std@@6B@    000000018001a480     main.obj
 0002:000084a8       ??_R2bad_array_new_length@std@@8 000000018001a4a8     main.obj
 0002:000084c8       ??_R2bad_alloc@std@@8      000000018001a4c8     main.obj
 0002:000084e0       ??_R1A@?0A@EA@exception@std@@8 000000018001a4e0     main.obj
 0002:00008508       ??_R1A@?0A@EA@bad_alloc@std@@8 000000018001a508     main.obj
 0002:00008530       ??_R2exception@std@@8      000000018001a530     main.obj
 0002:00008540       ??_R3exception@std@@8      000000018001a540     main.obj
 0002:00008558       ??_R4bad_alloc@std@@6B@    000000018001a558     main.obj
 0002:00008580       ??_R3bad_array_new_length@std@@8 000000018001a580     main.obj
 0002:00008598       ??_R3bad_alloc@std@@8      000000018001a598     main.obj
 0002:000085b0       ??_R4bad_array_new_length@std@@6B@ 000000018001a5b0     main.obj
 0002:000085d8       ??_R1A@?0A@EA@bad_array_new_length@std@@8 000000018001a5d8     main.obj
 0002:000085fc       __volatile_metadata        000000018001a5fc     <linker-defined>
 0002:00008ae8       __rtc_iaa                  000000018001aae8     LIBCMT:initsect.obj
 0002:00008af0       __rtc_izz                  000000018001aaf0     LIBCMT:initsect.obj
 0002:00008af8       __rtc_taa                  000000018001aaf8     LIBCMT:initsect.obj
 0002:00008b00       __rtc_tzz                  000000018001ab00     LIBCMT:initsect.obj
 0002:00009d50       _TI2?AVbad_alloc@std@@     000000018001bd50     libcpmt:xthrow.obj
 0002:00009d70       _CTA2?AVbad_alloc@std@@    000000018001bd70     libcpmt:xthrow.obj
 0002:00009d88       _CT??_R0?AVlogic_error@std@@@8??0logic_error@std@@QEAA@AEBV01@@Z24 000000018001bd88     libcpmt:xthrow.obj
 0002:00009db0       _TI3?AVlength_error@std@@  000000018001bdb0     libcpmt:xthrow.obj
 0002:00009dd0       _CTA3?AVlength_error@std@@ 000000018001bdd0     libcpmt:xthrow.obj
 0002:00009df0       _CT??_R0?AVlength_error@std@@@8??0length_error@std@@QEAA@AEBV01@@Z24 000000018001bdf0     libcpmt:xthrow.obj
 0002:00009e18       _TI2?AVbad_exception@std@@ 000000018001be18     libvcruntime:frame.obj
 0002:00009e38       _CTA2?AVbad_exception@std@@ 000000018001be38     libvcruntime:frame.obj
 0002:00009e50       _CT??_R0?AVbad_exception@std@@@8??0bad_exception@std@@QEAA@AEBV01@@Z24 000000018001be50     libvcruntime:frame.obj
 0002:00009e78       _CTA3?AVbad_array_new_length@std@@ 000000018001be78     main.obj
 0002:00009e98       _CT??_R0?AVbad_array_new_length@std@@@8??0bad_array_new_length@std@@QEAA@AEBV01@@Z24 000000018001be98     main.obj
 0002:00009ec0       _CT??_R0?AVbad_alloc@std@@@8??0bad_alloc@std@@QEAA@AEBV01@@Z24 000000018001bec0     main.obj
 0002:00009ee8       _CT??_R0?AVexception@std@@@8??0exception@std@@QEAA@AEBV01@@Z24 000000018001bee8     main.obj
 0002:00009f10       _TI3?AVbad_array_new_length@std@@ 000000018001bf10     main.obj
 0002:00009f7c       __IMPORT_DESCRIPTOR_KERNEL32 000000018001bf7c     kernel32:KERNEL32.dll
 0002:00009f90       __IMPORT_DESCRIPTOR_USER32 000000018001bf90     user32:USER32.dll
 0002:00009fa4       __IMPORT_DESCRIPTOR_d3d9   000000018001bfa4     d3d9:d3d9.dll
 0002:00009fb8       __IMPORT_DESCRIPTOR_d3dx9_43 000000018001bfb8     d3dx9:d3dx9_43.dll
 0002:00009fcc       __IMPORT_DESCRIPTOR_WINMM  000000018001bfcc     winmm:WINMM.dll
 0002:00009fe0       __NULL_IMPORT_DESCRIPTOR   000000018001bfe0     kernel32:KERNEL32.dll
 0003:00000000       __scrt_native_dllmain_reason 000000018001d000     LIBCMT:utility.obj
 0003:00000040       __security_cookie          000000018001d040     LIBCMT:gs_cookie.obj
 0003:00000080       __security_cookie_complement 000000018001d080     LIBCMT:gs_cookie.obj
 0003:00000088       __isa_available            000000018001d088     LIBCMT:cpu_disp.obj
 0003:0000008c       __isa_enabled              000000018001d08c     LIBCMT:cpu_disp.obj
 0003:00000090       __memset_fast_string_threshold 000000018001d090     LIBCMT:cpu_disp.obj
 0003:00000098       __memset_nt_threshold      000000018001d098     LIBCMT:cpu_disp.obj
 0003:000000a0       __isa_inverted             000000018001d0a0     LIBCMT:cpu_disp.obj
 0003:000000c0       __abort_behavior           000000018001d0c0     libucrt:abort.obj
 0003:000000e0       __acrt_initial_multibyte_data 000000018001d0e0     libucrt:mbctype.obj
 0003:00000620       __acrt_initial_locale_data 000000018001d620     libucrt:nlsdata.obj
 0003:00000778       __acrt_initial_locale_pointers 000000018001d778     libucrt:nlsdata.obj
 0003:00000788       __acrt_wide_c_locale_string 000000018001d788     libucrt:nlsdata.obj
 0003:00000790       _iob                       000000018001d790     libucrt:_file.obj
 0003:00000898       __globallocalestatus       000000018001d898     libucrt:glstatus.obj
 0003:000008a0       __acrt_lconv_c             000000018001d8a0     libucrt:localeconv.obj
 0003:00000938       __acrt_lconv_static_decimal 000000018001d938     libucrt:localeconv.obj
 0003:0000093c       __acrt_lconv_static_W_decimal 000000018001d93c     libucrt:localeconv.obj
 0003:00000940       _guard_check_icall_$fo_default$ 000000018001d940     libucrt:checkcfg.obj
 0003:00000940       _lookuptrailbytes          000000018001d940     libucrt:read.obj
 0003:00000a54       _fltused                   000000018001da54     LIBCMT:fltused.obj
 0003:00000a60       hde64_table                000000018001da60     hde64.obj
 0003:00000c80       ??_R0?AVlogic_error@std@@@8 000000018001dc80     libcpmt:xthrow.obj
 0003:00000ca8       ??_R0?AVlength_error@std@@@8 000000018001dca8     libcpmt:xthrow.obj
 0003:00000cd0       ??_R0?AVbad_exception@std@@@8 000000018001dcd0     libvcruntime:frame.obj
 0003:00000cf8       ??_R0?AVbad_alloc@std@@@8  000000018001dcf8     main.obj
 0003:00000d20       ??_R0?AVexception@std@@@8  000000018001dd20     main.obj
 0003:00000d48       ??_R0?AVbad_array_new_length@std@@@8 000000018001dd48     main.obj
 0003:00000d78       ??_R0?AVtype_info@@@8      000000018001dd78     LIBCMT:std_type_info_static.obj
 0003:00000da0       __scrt_current_native_startup_state 000000018001dda0     LIBCMT:utility.obj
 0003:00000da8       __scrt_native_startup_lock 000000018001dda8     LIBCMT:utility.obj
 0003:00000dec       __favor                    000000018001ddec     LIBCMT:cpu_disp.obj
 0003:00000df0       __avx10_version            000000018001ddf0     LIBCMT:cpu_disp.obj
 0003:00000df4       __scrt_debugger_hook_flag  000000018001ddf4     LIBCMT:utility_desktop.obj
 0003:00000e00       ?__type_info_root_node@@3U__type_info_node@@A 000000018001de00     LIBCMT:tncleanup.obj
 0003:00000e10       ?_OptionsStorage@?1??__local_stdio_printf_options@@9@4_KA 000000018001de10     LIBCMT:default_local_stdio_options.obj
 0003:00000e18       ?_OptionsStorage@?1??__local_stdio_scanf_options@@9@4_KA 000000018001de18     LIBCMT:default_local_stdio_options.obj
 0003:00000e20       ?__WinRTOutOfMemoryExceptionCallback@@3P6APEAXXZEA 000000018001de20     libvcruntime:ehhelpers.obj
 0003:00000ee0       __pPurecall                000000018001dee0     libvcruntime:purevirt_data.obj
 0003:00001018       _environ_table             000000018001e018     libucrt:environment_initialization.obj
 0003:00001020       _wenviron_table            000000018001e020     libucrt:environment_initialization.obj
 0003:00001028       __dcrt_initial_wide_environment 000000018001e028     libucrt:environment_initialization.obj
 0003:00001030       __dcrt_initial_narrow_environment 000000018001e030     libucrt:environment_initialization.obj
 0003:00001038       __acrt_atexit_table        000000018001e038     libucrt:onexit.obj
 0003:00001050       __acrt_at_quick_exit_table 000000018001e050     libucrt:onexit.obj
 0003:000012cc       ?__acrt_use_tls2_apis@@3_NA 000000018001e2cc     libucrt:per_thread_data.obj
 0003:000012d8       _mbctype                   000000018001e2d8     libucrt:mbctype.obj
 0003:000012e0       _mbcasemap                 000000018001e2e0     libucrt:mbctype.obj
 0003:000012e8       __acrt_current_multibyte_data 000000018001e2e8     libucrt:mbctype.obj
 0003:000012f8       _pgmptr                    000000018001e2f8     libucrt:argv_data.obj
 0003:00001300       __argc                     000000018001e300     libucrt:argv_data.obj
 0003:00001308       __argv                     000000018001e308     libucrt:argv_data.obj
 0003:00001310       __wargv                    000000018001e310     libucrt:argv_data.obj
 0003:00001318       _acmdln                    000000018001e318     libucrt:argv_data.obj
 0003:00001320       _wcmdln                    000000018001e320     libucrt:argv_data.obj
 0003:000013e8       __acrt_heap                000000018001e3e8     libucrt:heap_handle.obj
 0003:000013f0       __pioinfo                  000000018001e3f0     libucrt:ioinit.obj
 0003:000017f0       _nhandle                   000000018001e7f0     libucrt:ioinit.obj
 0003:00001820       __acrt_current_locale_data 000000018001e820     libucrt:nlsdata.obj
 0003:00001828       _nstream                   000000018001e828     libucrt:_file.obj
 0003:00001830       __piob                     000000018001e830     libucrt:_file.obj
 0003:00001838       __acrt_stdout_buffer       000000018001e838     libucrt:_sftbuf.obj
 0003:00001840       __acrt_stderr_buffer       000000018001e840     libucrt:_sftbuf.obj
 0003:00001858       __acrt_locale_changed_data 000000018001e858     libucrt:wsetlocale.obj
 0003:00001860       __acrt_lconv_static_null   000000018001e860     libucrt:localeconv.obj
 0003:00001864       __acrt_lconv_static_W_null 000000018001e864     libucrt:localeconv.obj
 0003:0000186c       __use_fma3_lib             000000018001e86c     libucrt:fma3_available.obj
 0003:00001870       __fma3_is_available        000000018001e870     libucrt:fma3_available.obj
 0003:00001878       ?offsets_in_bytes@@3IA     000000018001e878     main.obj
 0003:0000187c       ?Vertical_Correction@@3MA  000000018001e87c     main.obj
 0003:00001880       ?DrawIndexedPrimitive_orig@@3P6AJPEAUIDirect3DDevice9@@W4_D3DPRIMITIVETYPE@@HIIII@ZEA 000000018001e880     main.obj
 0003:00001888       ?viewport@@3U_D3DVIEWPORT9@@A 000000018001e888     main.obj
 0003:000018a0       ?stride@@3IA               000000018001e8a0     main.obj
 0003:000018a4       g_isLocked                 000000018001e8a4     hook.obj
 0003:000018a8       ?texGreen@@3PEAUIDirect3DTexture9@@EA 000000018001e8a8     main.obj
 0003:000018b0       ?pBuffer@@3PEAUIDirect3DVertexBuffer9@@EA 000000018001e8b0     main.obj
 0003:000018b8       ?Present_orig@@3P6AJPEAUIDirect3DDevice9@@PEBUtagRECT@@1PEAUHWND__@@PEBU_RGNDATA@@I@ZEA 000000018001e8b8     main.obj
 0003:000018c0       g_hHeap                    000000018001e8c0     hook.obj
 0003:000018c8       ?ModelInfo@@3V?$vector@PEAUModelInfo_t@@V?$allocator@PEAUModelInfo_t@@@std@@@std@@A 000000018001e8c8     main.obj
 0003:000018e8       __dyn_tls_init_callback    000000018001e8e8     <common>
 0003:000018f0       __scrt_ucrt_dll_is_in_use  000000018001e8f0     <common>
 0003:00001900       g_hooks                    000000018001e900     <common>
 0003:00001910       g_pMemoryBlocks            000000018001e910     <common>

 entry point at        0001:00002da4

 Static symbols

 0000:fffdc000       .debug$S                   0000000180000000     NekosifyD3D.exp
 0000:fffdc000       .debug$S                   0000000180000000     d3d9:d3d9.dll
 0000:fffdc000       .debug$S                   0000000180000000     kernel32:KERNEL32.dll
 0000:fffdc000       .debug$S                   0000000180000000     kernel32:KERNEL32.dll
 0000:fffdc000       .debug$S                   0000000180000000     kernel32:KERNEL32.dll
 0000:fffdc000       .debug$S                   0000000180000000     kernel32:KERNEL32.dll
 0000:fffdc000       .debug$S                   0000000180000000     kernel32:KERNEL32.dll
 0000:fffdc000       .debug$S                   0000000180000000     kernel32:KERNEL32.dll
 0000:fffdc000       .debug$S                   0000000180000000     kernel32:KERNEL32.dll
 0000:fffdc000       .debug$S                   0000000180000000     kernel32:KERNEL32.dll
 0000:fffdc000       .debug$S                   0000000180000000     kernel32:KERNEL32.dll
 0000:fffdc000       .debug$S                   0000000180000000     kernel32:KERNEL32.dll
 0000:fffdc000       .debug$S                   0000000180000000     kernel32:KERNEL32.dll
 0000:fffdc000       .debug$S                   0000000180000000     kernel32:KERNEL32.dll
 0000:fffdc000       .debug$S                   0000000180000000     kernel32:KERNEL32.dll
 0000:fffdc000       .debug$S                   0000000180000000     kernel32:KERNEL32.dll
 0000:fffdc000       .debug$S                   0000000180000000     kernel32:KERNEL32.dll
 0000:fffdc000       .debug$S                   0000000180000000     kernel32:KERNEL32.dll
 0000:fffdc000       .debug$S                   0000000180000000     kernel32:KERNEL32.dll
 0000:fffdc000       .debug$S                   0000000180000000     kernel32:KERNEL32.dll
 0000:fffdc000       .debug$S                   0000000180000000     kernel32:KERNEL32.dll
 0000:fffdc000       .debug$S                   0000000180000000     kernel32:KERNEL32.dll
 0000:fffdc000       .debug$S                   0000000180000000     kernel32:KERNEL32.dll
 0000:fffdc000       .debug$S                   0000000180000000     kernel32:KERNEL32.dll
 0000:fffdc000       .debug$S                   0000000180000000     kernel32:KERNEL32.dll
 0000:fffdc000       .debug$S                   0000000180000000     kernel32:KERNEL32.dll
 0000:fffdc000       .debug$S                   0000000180000000     kernel32:KERNEL32.dll
 0000:fffdc000       .debug$S                   0000000180000000     kernel32:KERNEL32.dll
 0000:fffdc000       .debug$S                   0000000180000000     kernel32:KERNEL32.dll
 0000:fffdc000       .debug$S                   0000000180000000     kernel32:KERNEL32.dll
 0000:fffdc000       .debug$S                   0000000180000000     kernel32:KERNEL32.dll
 0000:fffdc000       .debug$S                   0000000180000000     kernel32:KERNEL32.dll
 0000:fffdc000       .debug$S                   0000000180000000     kernel32:KERNEL32.dll
 0000:fffdc000       .debug$S                   0000000180000000     kernel32:KERNEL32.dll
 0000:fffdc000       .debug$S                   0000000180000000     kernel32:KERNEL32.dll
 0000:fffdc000       .debug$S                   0000000180000000     kernel32:KERNEL32.dll
 0000:fffdc000       .debug$S                   0000000180000000     kernel32:KERNEL32.dll
 0000:fffdc000       .debug$S                   0000000180000000     kernel32:KERNEL32.dll
 0000:fffdc000       .debug$S                   0000000180000000     kernel32:KERNEL32.dll
 0000:fffdc000       .debug$S                   0000000180000000     kernel32:KERNEL32.dll
 0000:fffdc000       .debug$S                   0000000180000000     kernel32:KERNEL32.dll
 0000:fffdc000       .debug$S                   0000000180000000     kernel32:KERNEL32.dll
 0000:fffdc000       .debug$S                   0000000180000000     kernel32:KERNEL32.dll
 0000:fffdc000       .debug$S                   0000000180000000     kernel32:KERNEL32.dll
 0000:fffdc000       .debug$S                   0000000180000000     kernel32:KERNEL32.dll
 0000:fffdc000       .debug$S                   0000000180000000     kernel32:KERNEL32.dll
 0000:fffdc000       .debug$S                   0000000180000000     kernel32:KERNEL32.dll
 0000:fffdc000       .debug$S                   0000000180000000     kernel32:KERNEL32.dll
 0000:fffdc000       .debug$S                   0000000180000000     kernel32:KERNEL32.dll
 0000:fffdc000       .debug$S                   0000000180000000     kernel32:KERNEL32.dll
 0000:fffdc000       .debug$S                   0000000180000000     kernel32:KERNEL32.dll
 0000:fffdc000       .debug$S                   0000000180000000     kernel32:KERNEL32.dll
 0000:fffdc000       .debug$S                   0000000180000000     kernel32:KERNEL32.dll
 0000:fffdc000       .debug$S                   0000000180000000     kernel32:KERNEL32.dll
 0000:fffdc000       .debug$S                   0000000180000000     kernel32:KERNEL32.dll
 0000:fffdc000       .debug$S                   0000000180000000     kernel32:KERNEL32.dll
 0000:fffdc000       .debug$S                   0000000180000000     kernel32:KERNEL32.dll
 0000:fffdc000       .debug$S                   0000000180000000     kernel32:KERNEL32.dll
 0000:fffdc000       .debug$S                   0000000180000000     kernel32:KERNEL32.dll
 0000:fffdc000       .debug$S                   0000000180000000     kernel32:KERNEL32.dll
 0000:fffdc000       .debug$S                   0000000180000000     kernel32:KERNEL32.dll
 0000:fffdc000       .debug$S                   0000000180000000     kernel32:KERNEL32.dll
 0000:fffdc000       .debug$S                   0000000180000000     kernel32:KERNEL32.dll
 0000:fffdc000       .debug$S                   0000000180000000     kernel32:KERNEL32.dll
 0000:fffdc000       .debug$S                   0000000180000000     kernel32:KERNEL32.dll
 0000:fffdc000       .debug$S                   0000000180000000     kernel32:KERNEL32.dll
 0000:fffdc000       .debug$S                   0000000180000000     kernel32:KERNEL32.dll
 0000:fffdc000       .debug$S                   0000000180000000     kernel32:KERNEL32.dll
 0000:fffdc000       .debug$S                   0000000180000000     kernel32:KERNEL32.dll
 0000:fffdc000       .debug$S                   0000000180000000     kernel32:KERNEL32.dll
 0000:fffdc000       .debug$S                   0000000180000000     kernel32:KERNEL32.dll
 0000:fffdc000       .debug$S                   0000000180000000     kernel32:KERNEL32.dll
 0000:fffdc000       .debug$S                   0000000180000000     kernel32:KERNEL32.dll
 0000:fffdc000       .debug$S                   0000000180000000     kernel32:KERNEL32.dll
 0000:fffdc000       .debug$S                   0000000180000000     kernel32:KERNEL32.dll
 0000:fffdc000       .debug$S                   0000000180000000     kernel32:KERNEL32.dll
 0000:fffdc000       .debug$S                   0000000180000000     kernel32:KERNEL32.dll
 0000:fffdc000       .debug$S                   0000000180000000     kernel32:KERNEL32.dll
 0000:fffdc000       .debug$S                   0000000180000000     kernel32:KERNEL32.dll
 0000:fffdc000       .debug$S                   0000000180000000     kernel32:KERNEL32.dll
 0000:fffdc000       .debug$S                   0000000180000000     kernel32:KERNEL32.dll
 0000:fffdc000       .debug$S                   0000000180000000     kernel32:KERNEL32.dll
 0000:fffdc000       .debug$S                   0000000180000000     kernel32:KERNEL32.dll
 0000:fffdc000       .debug$S                   0000000180000000     kernel32:KERNEL32.dll
 0000:fffdc000       .debug$S                   0000000180000000     kernel32:KERNEL32.dll
 0000:fffdc000       .debug$S                   0000000180000000     kernel32:KERNEL32.dll
 0000:fffdc000       .debug$S                   0000000180000000     kernel32:KERNEL32.dll
 0000:fffdc000       .debug$S                   0000000180000000     kernel32:KERNEL32.dll
 0000:fffdc000       .debug$S                   0000000180000000     kernel32:KERNEL32.dll
 0000:fffdc000       .debug$S                   0000000180000000     kernel32:KERNEL32.dll
 0000:fffdc000       .debug$S                   0000000180000000     kernel32:KERNEL32.dll
 0000:fffdc000       .debug$S                   0000000180000000     kernel32:KERNEL32.dll
 0000:fffdc000       .debug$S                   0000000180000000     kernel32:KERNEL32.dll
 0000:fffdc000       .debug$S                   0000000180000000     kernel32:KERNEL32.dll
 0000:fffdc000       .debug$S                   0000000180000000     kernel32:KERNEL32.dll
 0000:fffdc000       .debug$S                   0000000180000000     kernel32:KERNEL32.dll
 0000:fffdc000       .debug$S                   0000000180000000     kernel32:KERNEL32.dll
 0000:fffdc000       .debug$S                   0000000180000000     kernel32:KERNEL32.dll
 0000:fffdc000       .debug$S                   0000000180000000     kernel32:KERNEL32.dll
 0000:fffdc000       .debug$S                   0000000180000000     kernel32:KERNEL32.dll
 0000:fffdc000       .debug$S                   0000000180000000     kernel32:KERNEL32.dll
 0000:fffdc000       .debug$S                   0000000180000000     kernel32:KERNEL32.dll
 0000:fffdc000       .debug$S                   0000000180000000     kernel32:KERNEL32.dll
 0000:fffdc000       .debug$S                   0000000180000000     kernel32:KERNEL32.dll
 0000:fffdc000       .debug$S                   0000000180000000     kernel32:KERNEL32.dll
 0000:fffdc000       .debug$S                   0000000180000000     kernel32:KERNEL32.dll
 0000:fffdc000       .debug$S                   0000000180000000     kernel32:KERNEL32.dll
 0000:fffdc000       .debug$S                   0000000180000000     user32:USER32.dll
 0000:fffdc000       .debug$S                   0000000180000000     user32:USER32.dll
 0000:fffdc000       .debug$S                   0000000180000000     user32:USER32.dll
 0000:fffdc000       .debug$S                   0000000180000000     user32:USER32.dll
 0000:fffdc000       .debug$S                   0000000180000000     user32:USER32.dll
 0000:fffdc000       .debug$S                   0000000180000000     winmm:WINMM.dll
 0000:fffdc000       .debug$S                   0000000180000000     d3dx9:d3dx9_43.dll
 0001:00000000       ??__Eastime@@YAXXZ         0000000180001000 f   main.obj
 0001:00000010       ??__EModelInfo@@YAXXZ      0000000180001010 f   main.obj
 0001:00000e60       GetMemoryBlock             0000000180001e60 f   buffer.obj
 0001:000017f8       $LN176                     00000001800027f8     hde64.obj
 0001:00001814       $LN175                     0000000180002814     hde64.obj
 0001:000018f0       ProcessThreadIPs           00000001800028f0 f   hook.obj
 0001:00001ab0       Freeze                     0000000180002ab0 f   hook.obj
 0001:00001c60       EnableHookLL               0000000180002c60 f   hook.obj
 0001:00001d40       EnableAllHooksLL           0000000180002d40 f   hook.obj
 0001:00002680       $$000000                   0000000180003680     LIBCMT:amdsecgs.obj
 0001:00002a90       ?dllmain_crt_dispatch@@YAHQEAUHINSTANCE__@@KQEAX@Z 0000000180003a90 f   LIBCMT:dll_dllmain.obj
 0001:00002ae0       ?dllmain_crt_process_attach@@YAHQEAUHINSTANCE__@@QEAX@Z 0000000180003ae0 f   LIBCMT:dll_dllmain.obj
 0001:00002bf8       ?dllmain_crt_process_detach@@YAH_N@Z 0000000180003bf8 f   LIBCMT:dll_dllmain.obj
 0001:00002c7c       ?dllmain_dispatch@@YAHQEAUHINSTANCE__@@KQEAX@Z 0000000180003c7c f   LIBCMT:dll_dllmain.obj
 0001:0000404c       ??$BuildCatchObjectHelperInternal@V__FrameHandler3@@@@YAHPEAUEHExceptionRecord@@PEAXPEBU_s_HandlerType@@PEBU_s_CatchableType@@@Z 000000018000504c f   libvcruntime:frame.obj
 0001:00004240       ??$BuildCatchObjectInternal@V__FrameHandler3@@@@YAXPEAUEHExceptionRecord@@PEAXPEBU_s_HandlerType@@PEBU_s_CatchableType@@@Z 0000000180005240 f   libvcruntime:frame.obj
 0001:00004300       ??$CatchIt@V__FrameHandler3@@@@YAXPEAUEHExceptionRecord@@PEA_KPEAU_CONTEXT@@PEAU_xDISPATCHER_CONTEXT@@PEBU_s_FuncInfo@@PEBU_s_HandlerType@@PEBU_s_CatchableType@@PEBU_s_TryBlockMapEntry@@H1EE@Z 0000000180005300 f   libvcruntime:frame.obj
 0001:000043d8       ??$FindHandler@V__FrameHandler3@@@@YAXPEAUEHExceptionRecord@@PEA_KPEAU_CONTEXT@@PEAU_xDISPATCHER_CONTEXT@@PEBU_s_FuncInfo@@EH1@Z 00000001800053d8 f   libvcruntime:frame.obj
 0001:00004898       ??$FindHandlerForForeignException@V__FrameHandler3@@@@YAXPEAUEHExceptionRecord@@PEA_KPEAU_CONTEXT@@PEAU_xDISPATCHER_CONTEXT@@PEBU_s_FuncInfo@@HH1@Z 0000000180005898 f   libvcruntime:frame.obj
 0001:000050ac       ?ExFilterRethrow@@YAHPEAU_EXCEPTION_POINTERS@@PEAUEHExceptionRecord@@PEAH@Z 00000001800060ac f   libvcruntime:frame.obj
 0001:00005364       ?IsInExceptionSpec@@YAEPEAUEHExceptionRecord@@PEBU_s_ESTypeList@@@Z 0000000180006364 f   libvcruntime:frame.obj
 0001:00005444       ?Is_bad_exception_allowed@@YAEPEBU_s_ESTypeList@@@Z 0000000180006444 f   libvcruntime:frame.obj
 0001:000055b0       $$000000                   00000001800065b0     libvcruntime:notify.obj
 0001:000055d0       $$000000                   00000001800065d0     libvcruntime:notify.obj
 0001:000055e0       $$000000                   00000001800065e0     libvcruntime:notify.obj
 0001:00005660       $$000000                   0000000180006660     libvcruntime:handlers.obj
 0001:00005928       ??$?RV<lambda_d80eeec6fff315bfe5c115232f3240e3>@@AEAV<lambda_6e4b09c48022b2350581041d5f6b0c4c>@@V<lambda_2358e3775559c9db80273638284d5e45>@@@?$__crt_seh_guarded_call@X@@QEAAX$$QEAV<lambda_d80eeec6fff315bfe5c115232f3240e3>@@AEAV<lambda_6e4b09c48022b2350581041d5f6b0c4c>@@$$QEAV<lambda_2358e3775559c9db80273638284d5e45>@@@Z 0000000180006928 f   libucrt:exit.obj
 0001:00005960       ??R<lambda_6e4b09c48022b2350581041d5f6b0c4c>@@QEBA@XZ 0000000180006960 f   libucrt:exit.obj
 0001:00005a20       ?common_exit@@YAXHW4_crt_exit_cleanup_mode@@W4_crt_exit_return_mode@@@Z 0000000180006a20 f   libucrt:exit.obj
 0001:00005b04       ?exit_or_terminate_process@@YAXI_N@Z 0000000180006b04 f   libucrt:exit.obj
 0001:00005b34       ?try_cor_exit_process@@YAXI@Z 0000000180006b34 f   libucrt:exit.obj
 0001:00005bc4       ??$parse_command_line@D@@YAXPEADPEAPEAD0PEA_K2@Z 0000000180006bc4 f   libucrt:argv_parsing.obj
 0001:00005f64       ??$common_initialize_environment_nolock@D@@YAHXZ 0000000180006f64 f   libucrt:environment_initialization.obj
 0001:00005fd8       ??$create_environment@D@@YAQEAPEADQEAD@Z 0000000180006fd8 f   libucrt:environment_initialization.obj
 0001:000060ec       ??$free_environment@D@@YAXQEAPEAD@Z 00000001800070ec f   libucrt:environment_initialization.obj
 0001:000060ec       ??$free_environment@_W@@YAXQEAPEA_W@Z 00000001800070ec f   libucrt:environment_initialization.obj
 0001:00006130       ??$uninitialize_environment_internal@D@@YAXAEAPEAPEAD@Z 0000000180007130 f   libucrt:environment_initialization.obj
 0001:0000614c       ??$uninitialize_environment_internal@_W@@YAXAEAPEAPEA_W@Z 000000018000714c f   libucrt:environment_initialization.obj
 0001:000061b4       ??$?RV<lambda_638799b9deba96c50f710eeac98168cd>@@AEAV<lambda_22ebabd17bc4fa466a2aca6d8deb888d>@@V<lambda_a6f7d7db0129f75315ebf26d50c089f1>@@@?$__crt_seh_guarded_call@H@@QEAAH$$QEAV<lambda_638799b9deba96c50f710eeac98168cd>@@AEAV<lambda_22ebabd17bc4fa466a2aca6d8deb888d>@@$$QEAV<lambda_a6f7d7db0129f75315ebf26d50c089f1>@@@Z 00000001800071b4 f   libucrt:onexit.obj
 0001:000061f0       ??$?RV<lambda_7777bce6b2f8c936911f934f8298dc43>@@AEAV<lambda_f03950bc5685219e0bcd2087efbe011e>@@V<lambda_3883c3dff614d5e0c5f61bb1ac94921c>@@@?$__crt_seh_guarded_call@H@@QEAAH$$QEAV<lambda_7777bce6b2f8c936911f934f8298dc43>@@AEAV<lambda_f03950bc5685219e0bcd2087efbe011e>@@$$QEAV<lambda_3883c3dff614d5e0c5f61bb1ac94921c>@@@Z 00000001800071f0 f   libucrt:onexit.obj
 0001:0000622c       ??R<lambda_22ebabd17bc4fa466a2aca6d8deb888d>@@QEBA@XZ 000000018000722c f   libucrt:onexit.obj
 0001:000063dc       ??R<lambda_f03950bc5685219e0bcd2087efbe011e>@@QEBA@XZ 00000001800073dc f   libucrt:onexit.obj
 0001:000065b8       initialize_global_variables 00000001800075b8 f   libucrt:initialization.obj
 0001:000065cc       initialize_c               00000001800075cc f   libucrt:initialization.obj
 0001:000065f0       initialize_environment     00000001800075f0 f   libucrt:initialization.obj
 0001:000065f0       initialize_global_state_isolation 00000001800075f0 f   libucrt:initialization.obj
 0001:000065f0       report_memory_leaks        00000001800075f0 f   libucrt:initialization.obj
 0001:000065f0       uninitialize_c             00000001800075f0 f   libucrt:initialization.obj
 0001:000065f0       uninitialize_global_state_isolation 00000001800075f0 f   libucrt:initialization.obj
 0001:000065f4       uninitialize_environment   00000001800075f4 f   libucrt:initialization.obj
 0001:00006604       initialize_pointers        0000000180007604 f   libucrt:initialization.obj
 0001:00006644       uninitialize_vcruntime     0000000180007644 f   libucrt:initialization.obj
 0001:0000664c       uninitialize_allocated_memory 000000018000764c f   libucrt:initialization.obj
 0001:0000668c       uninitialize_allocated_io_buffers 000000018000768c f   libucrt:initialization.obj
 0001:00006b00       ??$?RV<lambda_0ae27a3a962d80f24befdcbee591983d>@@AEAV<lambda_8d0ee55de4b1038c4002e0adecdf1839>@@V<lambda_dc504788e8f1664fe9b84e20bfb512f2>@@@?$__crt_seh_guarded_call@X@@QEAAX$$QEAV<lambda_0ae27a3a962d80f24befdcbee591983d>@@AEAV<lambda_8d0ee55de4b1038c4002e0adecdf1839>@@$$QEAV<lambda_dc504788e8f1664fe9b84e20bfb512f2>@@@Z 0000000180007b00 f   libucrt:per_thread_data.obj
 0001:00006b40       ??$?RV<lambda_2d41944a1d46af3157314b8a01080d33>@@AEAV<lambda_8f455de75cd7d7f24b4096f044d8b9e6>@@V<lambda_aa500f224e6afead328df44964fe2772>@@@?$__crt_seh_guarded_call@X@@QEAAX$$QEAV<lambda_2d41944a1d46af3157314b8a01080d33>@@AEAV<lambda_8f455de75cd7d7f24b4096f044d8b9e6>@@$$QEAV<lambda_aa500f224e6afead328df44964fe2772>@@@Z 0000000180007b40 f   libucrt:per_thread_data.obj
 0001:00006b80       ??$?RV<lambda_aa87e3671a710a21b5dc78c0bdf72e11>@@AEAV<lambda_92619d2358a28f41a33ba319515a20b9>@@V<lambda_6992ecaafeb10aed2b74cb1fae11a551>@@@?$__crt_seh_guarded_call@X@@QEAAX$$QEAV<lambda_aa87e3671a710a21b5dc78c0bdf72e11>@@AEAV<lambda_92619d2358a28f41a33ba319515a20b9>@@$$QEAV<lambda_6992ecaafeb10aed2b74cb1fae11a551>@@@Z 0000000180007b80 f   libucrt:per_thread_data.obj
 0001:00006bc8       ??$?RV<lambda_f2e299630e499de9f9a165e60fcd3db5>@@AEAV<lambda_2ae9d31cdba2644fcbeaf08da7c24588>@@V<lambda_40d01ff24d0e7b3814fdbdcee8eab3c7>@@@?$__crt_seh_guarded_call@X@@QEAAX$$QEAV<lambda_f2e299630e499de9f9a165e60fcd3db5>@@AEAV<lambda_2ae9d31cdba2644fcbeaf08da7c24588>@@$$QEAV<lambda_40d01ff24d0e7b3814fdbdcee8eab3c7>@@@Z 0000000180007bc8 f   libucrt:per_thread_data.obj
 0001:00006c28       ?construct_ptd_array@@YAXQEAU__acrt_ptd@@@Z 0000000180007c28 f   libucrt:per_thread_data.obj
 0001:00006cf8       ?destroy_fls@@YAXPEAX@Z    0000000180007cf8 f   libucrt:per_thread_data.obj
 0001:00006d18       ?destroy_ptd_array@@YAXQEAU__acrt_ptd@@@Z 0000000180007d18 f   libucrt:per_thread_data.obj
 0001:00006ec8       ?replace_current_thread_locale_nolock@@YAXQEAU__acrt_ptd@@QEAU__crt_locale_data@@@Z 0000000180007ec8 f   libucrt:per_thread_data.obj
 0001:000077c0       ?select_heap@@YAPEAXQEAX@Z 00000001800087c0 f   libucrt:free_base.obj
 0001:000077c8       ?<lambda_invoker_cdecl>@<lambda_a1ce4c8ae42411fd470c77163914f50e>@@CAHPEBX0@Z 00000001800087c8 f   libucrt:argv_wildcards.obj
 0001:00007b28       ??$common_expand_argv_wildcards@D@@YAHQEAPEADQEAPEAPEAD@Z 0000000180008b28 f   libucrt:argv_wildcards.obj
 0001:00007d64       ??$copy_and_add_argument_to_buffer@D@@YAHQEBD0_KAEAV?$argument_list@D@?A0x5f5c8891@@@Z 0000000180008d64 f   libucrt:argv_wildcards.obj
 0001:00007ee8       ??$expand_argument_wildcards@D@@YAHQEAD0AEAV?$argument_list@D@?A0x5f5c8891@@@Z 0000000180008ee8 f   libucrt:argv_wildcards.obj
 0001:0000852c       ??$?RV<lambda_efdfa57d1f175319df784efa44bb7b81>@@AEAV<lambda_5f0a4c1567f8adc6734073e5d1e1b35c>@@V<lambda_2e8a7d3640ea6ccb4c2413664c2db6fd>@@@?$__crt_seh_guarded_call@X@@QEAAX$$QEAV<lambda_efdfa57d1f175319df784efa44bb7b81>@@AEAV<lambda_5f0a4c1567f8adc6734073e5d1e1b35c>@@$$QEAV<lambda_2e8a7d3640ea6ccb4c2413664c2db6fd>@@@Z 000000018000952c f   libucrt:mbctype.obj
 0001:000086fc       ?getSystemCP@@YAHH@Z       00000001800096fc f   libucrt:mbctype.obj
 0001:0000877c       ?setSBCS@@YAXPEAU__crt_multibyte_data@@@Z 000000018000977c f   libucrt:mbctype.obj
 0001:00008814       ?setSBUpLow@@YAXPEAU__crt_multibyte_data@@@Z 0000000180009814 f   libucrt:mbctype.obj
 0001:00008a0c       ?setmbcp_internal@@YAHH_NQEAU__acrt_ptd@@QEAPEAU__crt_multibyte_data@@@Z 0000000180009a0c f   libucrt:mbctype.obj
 0001:00008c7c       ?update_thread_multibyte_data_internal@@YAPEAU__crt_multibyte_data@@QEAU__acrt_ptd@@QEAPEAU1@@Z 0000000180009c7c f   libucrt:mbctype.obj
 0001:00009078       ?x_ismbbtype_l@@YAHPEAU__crt_locale_pointers@@IHH@Z 000000018000a078 f   libucrt:ismbbyte.obj
 0001:00009458       ?try_get_function_slow@@YAPEAXW4function_id@?A0x391cf84c@@QEBDQEBW4module_id@2@2@Z 000000018000a458 f   libucrt:winapi_thunks.obj
 0001:00009968       ?initialize_inherited_file_handles_nolock@@YAXXZ 000000018000a968 f   libucrt:ioinit.obj
 0001:00009a68       ?initialize_stdio_handles_nolock@@YAXXZ 000000018000aa68 f   libucrt:ioinit.obj
 0001:00009ca8       ??$?RV<lambda_450d765d439847d4c735a33c368b5fc0>@@AEAV<lambda_44731a7d0e6d81c3e6aa82d741081786>@@V<lambda_601a2a7da3b7a96e9554ac7215c4b07c>@@@?$__crt_seh_guarded_call@P6AXH@Z@@QEAAP6AXH@Z$$QEAV<lambda_450d765d439847d4c735a33c368b5fc0>@@AEAV<lambda_44731a7d0e6d81c3e6aa82d741081786>@@$$QEAV<lambda_601a2a7da3b7a96e9554ac7215c4b07c>@@@Z 000000018000aca8 f   libucrt:signal.obj
 0001:0000a000       ??$?RV<lambda_842d9ff0dc9ef11c61343bbaebe7f885>@@AEAV<lambda_c5860995281e5c4ce005b3de8f5874ee>@@V<lambda_d90129c13df834fdcbf8d2b88dafcf2d>@@@?$__crt_seh_guarded_call@X@@QEAAX$$QEAV<lambda_842d9ff0dc9ef11c61343bbaebe7f885>@@AEAV<lambda_c5860995281e5c4ce005b3de8f5874ee>@@$$QEAV<lambda_d90129c13df834fdcbf8d2b88dafcf2d>@@@Z 000000018000b000 f   libucrt:fflush.obj
 0001:0000a09c       ??$?RV<lambda_886d6c58226a84441f68b9f2b8217b83>@@AEAV<lambda_ab61a845afdef5b7c387490eaf3616ee>@@V<lambda_f7f22ab5edc0698d5f6905b0d3f44752>@@@?$__crt_seh_guarded_call@X@@QEAAX$$QEAV<lambda_886d6c58226a84441f68b9f2b8217b83>@@AEAV<lambda_ab61a845afdef5b7c387490eaf3616ee>@@$$QEAV<lambda_f7f22ab5edc0698d5f6905b0d3f44752>@@@Z 000000018000b09c f   libucrt:fflush.obj
 0001:0000a180       ?common_flush_all@@YAH_N@Z 000000018000b180 f   libucrt:fflush.obj
 0001:0000ab4c       ??$?RV<lambda_410d79af7f07d98d83a3f525b3859a53>@@AEAV<lambda_3e16ef9562a7dcce91392c22ab16ea36>@@V<lambda_38119f0e861e05405d8a144b9b982f0a>@@@?$__crt_seh_guarded_call@X@@QEAAX$$QEAV<lambda_410d79af7f07d98d83a3f525b3859a53>@@AEAV<lambda_3e16ef9562a7dcce91392c22ab16ea36>@@$$QEAV<lambda_38119f0e861e05405d8a144b9b982f0a>@@@Z 000000018000bb4c f   libucrt:wsetlocale.obj
 0001:0000b520       fallbackMethod             000000018000c520 f   libucrt:strpbrk.obj
 0001:0000b8bc       $LN79                      000000018000c8bc     libucrt:strpbrk.obj
 0001:0000b8f8       $LN78                      000000018000c8f8     libucrt:strpbrk.obj
 0001:0000b938       $LN77                      000000018000c938     libucrt:strpbrk.obj
 0001:0000bba4       ?__acrt_LCMapStringA_stat@@YAHPEAU__crt_locale_pointers@@PEB_WKPEBDHPEADHHH@Z 000000018000cba4 f   libucrt:lcmapstringa.obj
 0001:0000bf70       ?initialize_multibyte@@YAHXZ 000000018000cf70 f   libucrt:multibyte_initializer.obj
 0001:0000c460       ??$?RV<lambda_a37b2b86f63e897a80ea819b0eb08c01>@@AEAV<lambda_38ce7e780aa69e748d6df282ebc68efe>@@V<lambda_99fb1378e971ab6e7edea83e3a7a83a2>@@@?$__crt_seh_guarded_call@H@@QEAAH$$QEAV<lambda_a37b2b86f63e897a80ea819b0eb08c01>@@AEAV<lambda_38ce7e780aa69e748d6df282ebc68efe>@@$$QEAV<lambda_99fb1378e971ab6e7edea83e3a7a83a2>@@@Z 000000018000d460 f   libucrt:commit.obj
 0001:0000c580       ?write_double_translated_ansi_nolock@@YA?AUwrite_result@?A0x17268360@@HQEBDIAEAV__crt_cached_ptd_host@@@Z 000000018000d580 f   libucrt:write.obj
 0001:0000ca14       ?write_text_ansi_nolock@@YA?AUwrite_result@?A0x17268360@@HQEBDI@Z 000000018000da14 f   libucrt:write.obj
 0001:0000cb1c       ?write_text_utf16le_nolock@@YA?AUwrite_result@?A0x17268360@@HQEBDI@Z 000000018000db1c f   libucrt:write.obj
 0001:0000cc38       ?write_text_utf8_nolock@@YA?AUwrite_result@?A0x17268360@@HQEBDI@Z 000000018000dc38 f   libucrt:write.obj
 0001:0000d4e8       ?free_crt_array_internal@@YAXQEAPEBX_K@Z 000000018000e4e8 f   libucrt:inittime.obj
 0001:0000d6d0       ??$common_lseek_nolock@_J@@YA_JH_JHAEAV__crt_cached_ptd_host@@@Z 000000018000e6d0 f   libucrt:lseek.obj
 0001:0000d7c8       ?_fclose_internal@@YAHQEAU_iobuf@@AEAV__crt_cached_ptd_host@@@Z 000000018000e7c8 f   libucrt:fclose.obj
 0001:0000d844       ?_fclose_nolock_internal@@YAHQEAU_iobuf@@AEAV__crt_cached_ptd_host@@@Z 000000018000e844 f   libucrt:fclose.obj
 0001:0000dac0       ??$?RV<lambda_ad8af0d99a0adf03d037d7dffe354bb5>@@AEAV<lambda_c9ba49e555ba839a7b07aa3fbecb7617>@@V<lambda_2f1ebd5d68526518146ae959c9e734c8>@@@?$__crt_seh_guarded_call@H@@QEAAH$$QEAV<lambda_ad8af0d99a0adf03d037d7dffe354bb5>@@AEAV<lambda_c9ba49e555ba839a7b07aa3fbecb7617>@@$$QEAV<lambda_2f1ebd5d68526518146ae959c9e734c8>@@@Z 000000018000eac0 f   libucrt:close.obj
 0001:0000dcf0       _exception_enabled         000000018000ecf0 f   libucrt:libm_error.obj
 0001:0000e650       $$000000                   000000018000f650     LIBCMT:chkstk.obj
 0001:0000e700       $$000000                   000000018000f700     libucrt:cosf.obj
 0001:0000e704       Lcosf_sse2                 000000018000f704     libucrt:cosf.obj
 0001:0000e760       Lcosf_sse2_absx_gt_piby4   000000018000f760     libucrt:cosf.obj
 0001:0000e814       Lcosf_sse2_expdiff_le_15   000000018000f814     libucrt:cosf.obj
 0001:0000e837       Lcosf_sse2_r_small_calc_cos 000000018000f837     libucrt:cosf.obj
 0001:0000e850       Lcosf_sse2_r_small_calc_sin 000000018000f850     libucrt:cosf.obj
 0001:0000e870       Lcosf_sse2_r_very_small    000000018000f870     libucrt:cosf.obj
 0001:0000e890       Lcosf_sse2_reduce_precise  000000018000f890     libucrt:cosf.obj
 0001:0000e8c0       Lcosf_sse2_calc_sincosf_piby4 000000018000f8c0     libucrt:cosf.obj
 0001:0000e8cd       Lcosf_sse2_do_sinf_calc    000000018000f8cd     libucrt:cosf.obj
 0001:0000e920       Lcosf_sse2_do_cosf_calc    000000018000f920     libucrt:cosf.obj
 0001:0000e974       Lcosf_sse2_adjust_region   000000018000f974     libucrt:cosf.obj
 0001:0000e988       Lcosf_sse2_cleanup         000000018000f988     libucrt:cosf.obj
 0001:0000e991       Lcosf_sse2_naninf          000000018000f991     libucrt:cosf.obj
 0001:0000e9a0       $$000000                   000000018000f9a0     libucrt:cosf.obj
 0001:0000e9b1       Lcosf_fma3                 000000018000f9b1     libucrt:cosf.obj
 0001:0000ea00       Lcosf_fma3_compute_1_xx_5  000000018000fa00     libucrt:cosf.obj
 0001:0000ea20       Lcosf_fma3_compute_cosf_piby_4 000000018000fa20     libucrt:cosf.obj
 0001:0000ea80       Lcosf_fma3_range_reduce    000000018000fa80     libucrt:cosf.obj
 0001:0000eaf0       Lcosf_reduce_precise       000000018000faf0     libucrt:cosf.obj
 0001:0000eafc       Lcos_remainder_piby2_small 000000018000fafc     libucrt:cosf.obj
 0001:0000eb10       Lcos_remainder_piby2       000000018000fb10     libucrt:cosf.obj
 0001:0000eb15       Lcosf_exit_s               000000018000fb15     libucrt:cosf.obj
 0001:0000eb50       Lcosf_piby4_compute        000000018000fb50     libucrt:cosf.obj
 0001:0000eb98       Lcosf_fma3_adjust_sign     000000018000fb98     libucrt:cosf.obj
 0001:0000ebb5       Lcosf_fma3_naninf          000000018000fbb5     libucrt:cosf.obj
 0001:0000ebc0       $$000000                   000000018000fbc0     libucrt:sinf.obj
 0001:0000ebc4       Lsinf_sse2                 000000018000fbc4     libucrt:sinf.obj
 0001:0000ec30       Lsinf_sse2_smaller         000000018000fc30     libucrt:sinf.obj
 0001:0000ec60       Lsinf_sse2_small           000000018000fc60     libucrt:sinf.obj
 0001:0000ecc0       Lsinf_absx_gt_piby4        000000018000fcc0     libucrt:sinf.obj
 0001:0000ecd9       Lsinf_sse2_reduce_moderate 000000018000fcd9     libucrt:sinf.obj
 0001:0000ed88       Lsinf_sse2_expdiff_le_15   000000018000fd88     libucrt:sinf.obj
 0001:0000edd0       Lsinf_sse2_small_calc_sin  000000018000fdd0     libucrt:sinf.obj
 0001:0000edf0       Lsinf_sse2_r_very_small    000000018000fdf0     libucrt:sinf.obj
 0001:0000ee10       Lsinf_sse2_reduce_large    000000018000fe10     libucrt:sinf.obj
 0001:0000ee3e       Lsinf_sse2_calc_sincosf_piby4 000000018000fe3e     libucrt:sinf.obj
 0001:0000ee4b       Lsinf_sse2_do_sinf_calc    000000018000fe4b     libucrt:sinf.obj
 0001:0000eea0       Lsinf_sse2_do_cosf_calc    000000018000fea0     libucrt:sinf.obj
 0001:0000eef4       Lsinf_sse2_adjust_region   000000018000fef4     libucrt:sinf.obj
 0001:0000ef16       Lsinf_sse2_cleanup         000000018000ff16     libucrt:sinf.obj
 0001:0000ef20       Lsinf_sse2_naninf          000000018000ff20     libucrt:sinf.obj
 0001:0000ef30       $$000000                   000000018000ff30     libucrt:sinf.obj
 0001:0000ef3d       Lsinf_fma3                 000000018000ff3d     libucrt:sinf.obj
 0001:0000ef90       Lsinf_fma3_compute_x_xxx_0_1666 000000018000ff90     libucrt:sinf.obj
 0001:0000efb0       Lsinf_fma3_compute_sinf_piby_4 000000018000ffb0     libucrt:sinf.obj
 0001:0000eff0       Lsinf_fma3_range_reduce    000000018000fff0     libucrt:sinf.obj
 0001:0000effc       Lsinf_fma3_sinf_reduce_moderate 000000018000fffc     libucrt:sinf.obj
 0001:0000f060       Lsinf_fma3_reduce_large    0000000180010060     libucrt:sinf.obj
 0001:0000f100       Lsinf_fma3_no_point_five_f 0000000180010100     libucrt:sinf.obj
 0001:0000f13b       Lsinf_fma3_form_mantissa_f 000000018001013b     libucrt:sinf.obj
 0001:0000f170       Lsinf_fma3_hsb_below_52_f  0000000180010170     libucrt:sinf.obj
 0001:0000f18f       Lsinf_fma3_form_numbers_f  000000018001018f     libucrt:sinf.obj
 0001:0000f1b5       Lsinf_fma3_exit_s          00000001800101b5     libucrt:sinf.obj
 0001:0000f1c4       Lsinf_fma3_sin_piby4_compute 00000001800101c4     libucrt:sinf.obj
 0001:0000f200       Lsinf_fma3_cos_piby4_compute 0000000180010200     libucrt:sinf.obj
 0001:0000f245       Lsinf_fma3_exit_s_1        0000000180010245     libucrt:sinf.obj
 0001:0000f273       Lsinf_fma3_return_sinf_s   0000000180010273     libucrt:sinf.obj
 0001:0000f278       Lsinf_fma3_naninf          0000000180010278     libucrt:sinf.obj
 0001:0000f320       $$000000                   0000000180010320     libucrt:remainder_piby2f_forasm.obj
 0001:0000f3c0       L__no_point_five           00000001800103c0     libucrt:remainder_piby2f_forasm.obj
 0001:0000f400       L__form_mantissa           0000000180010400     libucrt:remainder_piby2f_forasm.obj
 0001:0000f420       L__hsb_below_52            0000000180010420     libucrt:remainder_piby2f_forasm.obj
 0001:0000f440       L__form_numbers            0000000180010440     libucrt:remainder_piby2f_forasm.obj
 0001:0000f470       $$000000                   0000000180010470     libucrt:remainder_piby2_forfma3.obj
 0001:0000f520       L__no_point_five           0000000180010520     libucrt:remainder_piby2_forfma3.obj
 0001:0000f560       L__form_mantissa           0000000180010560     libucrt:remainder_piby2_forfma3.obj
 0001:0000f590       L__hsb_below_52            0000000180010590     libucrt:remainder_piby2_forfma3.obj
 0001:0000f5b0       L__form_numbers            00000001800105b0     libucrt:remainder_piby2_forfma3.obj
 0001:0000f660       $$000000                   0000000180010660     libucrt:remainder_piby2_forfma3.obj
 0001:0000f800       $$000000                   0000000180010800     libucrt:remainder_piby2f_forc.obj
 0001:0000f8d0       L__no_point_five           00000001800108d0     libucrt:remainder_piby2f_forc.obj
 0001:0000f910       L__form_mantissa           0000000180010910     libucrt:remainder_piby2f_forc.obj
 0001:0000f930       L__hsb_below_52            0000000180010930     libucrt:remainder_piby2f_forc.obj
 0001:0000f950       L__form_numbers            0000000180010950     libucrt:remainder_piby2f_forc.obj
 0001:0000f990       $$000000                   0000000180010990     LIBCMT:guard_dispatch.obj
 0001:0000f9b0       $$000000                   00000001800109b0     LIBCMT:guard_xfg_dispatch.obj
 0001:0000f9e0       $$000000                   00000001800109e0     libucrt:dispatchcfg.obj
 0001:0000fa10       $$000000                   0000000180010a10     libvcruntime:memset.obj
 0001:0000fa20       $$000000                   0000000180010a20     libvcruntime:memset.obj
 0001:0000fa61       SetSmall15                 0000000180010a61     libvcruntime:memset.obj
 0001:0000fa65       SetSmall7                  0000000180010a65     libvcruntime:memset.obj
 0001:0000fa69       SetSmall3                  0000000180010a69     libvcruntime:memset.obj
 0001:0000fa6e       SetSmall1                  0000000180010a6e     libvcruntime:memset.obj
 0001:0000fa72       SetSmall0                  0000000180010a72     libvcruntime:memset.obj
 0001:0000fa73       SetSmall14                 0000000180010a73     libvcruntime:memset.obj
 0001:0000fa77       SetSmall6                  0000000180010a77     libvcruntime:memset.obj
 0001:0000fa7b       SetSmall2                  0000000180010a7b     libvcruntime:memset.obj
 0001:0000fa80       MoveSmall0                 0000000180010a80     libvcruntime:memset.obj
 0001:0000fa90       SetSmall13                 0000000180010a90     libvcruntime:memset.obj
 0001:0000fa94       SetSmall5                  0000000180010a94     libvcruntime:memset.obj
 0001:0000faa0       SetSmall12                 0000000180010aa0     libvcruntime:memset.obj
 0001:0000faa4       SetSmall4                  0000000180010aa4     libvcruntime:memset.obj
 0001:0000faa9       SetSmall11                 0000000180010aa9     libvcruntime:memset.obj
 0001:0000fab7       SetSmall9                  0000000180010ab7     libvcruntime:memset.obj
 0001:0000fac0       SetSmall10                 0000000180010ac0     libvcruntime:memset.obj
 0001:0000faca       SetSmall8                  0000000180010aca     libvcruntime:memset.obj
 0001:0000fad0       SetAbove15                 0000000180010ad0     libvcruntime:memset.obj
 0001:0000fae6       SetAbove32                 0000000180010ae6     libvcruntime:memset.obj
 0001:0000fb12       SetWithYMM                 0000000180010b12     libvcruntime:memset.obj
 0001:0000fb50       YmmLoop                    0000000180010b50     libvcruntime:memset.obj
 0001:0000fb9a       SetUpTo256WithYMM          0000000180010b9a     libvcruntime:memset.obj
 0001:0000fbb7       Set8YmmBlocks              0000000180010bb7     libvcruntime:memset.obj
 0001:0000fbc1       Set7YmmBlocks              0000000180010bc1     libvcruntime:memset.obj
 0001:0000fbcb       Set6YmmBlocks              0000000180010bcb     libvcruntime:memset.obj
 0001:0000fbd5       Set5YmmBlocks              0000000180010bd5     libvcruntime:memset.obj
 0001:0000fbdf       Set4YmmBlocks              0000000180010bdf     libvcruntime:memset.obj
 0001:0000fbe6       Set3YmmBlocks              0000000180010be6     libvcruntime:memset.obj
 0001:0000fbed       Set2YmmBlocks              0000000180010bed     libvcruntime:memset.obj
 0001:0000fbf4       Set1YmmBlocks              0000000180010bf4     libvcruntime:memset.obj
 0001:0000fbfb       Set0YmmBlocks              0000000180010bfb     libvcruntime:memset.obj
 0001:0000fc03       SetWithYMMNT               0000000180010c03     libvcruntime:memset.obj
 0001:0000fc10       YmmLoopNT                  0000000180010c10     libvcruntime:memset.obj
 0001:0000fc77       Set8YmmBlocksNT            0000000180010c77     libvcruntime:memset.obj
 0001:0000fc81       Set7YmmBlocksNT            0000000180010c81     libvcruntime:memset.obj
 0001:0000fc8b       Set6YmmBlocksNT            0000000180010c8b     libvcruntime:memset.obj
 0001:0000fc95       Set5YmmBlocksNT            0000000180010c95     libvcruntime:memset.obj
 0001:0000fc9f       Set4YmmBlocksNT            0000000180010c9f     libvcruntime:memset.obj
 0001:0000fca6       Set3YmmBlocksNT            0000000180010ca6     libvcruntime:memset.obj
 0001:0000fcad       Set2YmmBlocksNT            0000000180010cad     libvcruntime:memset.obj
 0001:0000fcb4       Set1YmmBlocksNT            0000000180010cb4     libvcruntime:memset.obj
 0001:0000fcbb       Set0YmmBlocksNT            0000000180010cbb     libvcruntime:memset.obj
 0001:0000fcd0       NoAVX                      0000000180010cd0     libvcruntime:memset.obj
 0001:0000fce6       SetWithXMM                 0000000180010ce6     libvcruntime:memset.obj
 0001:0000fd10       XmmLoop                    0000000180010d10     libvcruntime:memset.obj
 0001:0000fd4e       SetUpTo128WithXMM          0000000180010d4e     libvcruntime:memset.obj
 0001:0000fd6b       Set8XmmBlocks              0000000180010d6b     libvcruntime:memset.obj
 0001:0000fd72       Set7XmmBlocks              0000000180010d72     libvcruntime:memset.obj
 0001:0000fd79       Set6XmmBlocks              0000000180010d79     libvcruntime:memset.obj
 0001:0000fd80       Set5XmmBlocks              0000000180010d80     libvcruntime:memset.obj
 0001:0000fd87       Set4XmmBlocks              0000000180010d87     libvcruntime:memset.obj
 0001:0000fd8e       Set3XmmBlocks              0000000180010d8e     libvcruntime:memset.obj
 0001:0000fd95       Set2XmmBlocks              0000000180010d95     libvcruntime:memset.obj
 0001:0000fd9c       Set1XmmBlocks              0000000180010d9c     libvcruntime:memset.obj
 0001:0000fda3       Set0XmmBlocks              0000000180010da3     libvcruntime:memset.obj
 0001:0000fdd0       $$000000                   0000000180010dd0     libvcruntime:memcpy.obj
 0001:0000fde0       $$000000                   0000000180010de0     libvcruntime:memcpy.obj
 0001:0000fe0e       MoveSmall0                 0000000180010e0e     libvcruntime:memcpy.obj
 0001:0000fe10       MoveSmall15                0000000180010e10     libvcruntime:memcpy.obj
 0001:0000fe30       MoveSmall11                0000000180010e30     libvcruntime:memcpy.obj
 0001:0000fe48       MoveSmall2                 0000000180010e48     libvcruntime:memcpy.obj
 0001:0000fe50       MoveSmall7                 0000000180010e50     libvcruntime:memcpy.obj
 0001:0000fe68       MoveSmall14                0000000180010e68     libvcruntime:memcpy.obj
 0001:0000fe7f       MoveSmall3                 0000000180010e7f     libvcruntime:memcpy.obj
 0001:0000fe90       MoveSmall13                0000000180010e90     libvcruntime:memcpy.obj
 0001:0000fea6       MoveSmall10                0000000180010ea6     libvcruntime:memcpy.obj
 0001:0000feb5       MoveSmall9                 0000000180010eb5     libvcruntime:memcpy.obj
 0001:0000fec3       MoveSmall12                0000000180010ec3     libvcruntime:memcpy.obj
 0001:0000fed0       MoveSmall6                 0000000180010ed0     libvcruntime:memcpy.obj
 0001:0000fedf       MoveSmall5                 0000000180010edf     libvcruntime:memcpy.obj
 0001:0000feed       MoveSmall8                 0000000180010eed     libvcruntime:memcpy.obj
 0001:0000fef4       MoveSmall1                 0000000180010ef4     libvcruntime:memcpy.obj
 0001:0000fefa       MoveSmall4                 0000000180010efa     libvcruntime:memcpy.obj
 0001:0000ff00       MoveAbove15                0000000180010f00     libvcruntime:memcpy.obj
 0001:0000ff1d       MoveAbove32                0000000180010f1d     libvcruntime:memcpy.obj
 0001:0000ff6d       MoveWithYMM                0000000180010f6d     libvcruntime:memcpy.obj
 0001:0000ffc0       YmmLoop                    0000000180010fc0     libvcruntime:memcpy.obj
 0001:00010048       MovUpTo256WithYMM          0000000180011048     libvcruntime:memcpy.obj
 0001:00010065       Mov8YmmBlocks              0000000180011065     libvcruntime:memcpy.obj
 0001:00010079       Mov7YmmBlocks              0000000180011079     libvcruntime:memcpy.obj
 0001:0001008d       Mov6YmmBlocks              000000018001108d     libvcruntime:memcpy.obj
 0001:000100a1       Mov5YmmBlocks              00000001800110a1     libvcruntime:memcpy.obj
 0001:000100b5       Mov4YmmBlocks              00000001800110b5     libvcruntime:memcpy.obj
 0001:000100c3       Mov3YmmBlocks              00000001800110c3     libvcruntime:memcpy.obj
 0001:000100d1       Mov2YmmBlocks              00000001800110d1     libvcruntime:memcpy.obj
 0001:000100df       Mov1YmmBlocks              00000001800110df     libvcruntime:memcpy.obj
 0001:000100e6       Mov0YmmBlocks              00000001800110e6     libvcruntime:memcpy.obj
 0001:000100f0       YmmLoopNT                  00000001800110f0     libvcruntime:memcpy.obj
 0001:00010195       Mov8YmmBlocksNT            0000000180011195     libvcruntime:memcpy.obj
 0001:000101a9       Mov7YmmBlocksNT            00000001800111a9     libvcruntime:memcpy.obj
 0001:000101bd       Mov6YmmBlocksNT            00000001800111bd     libvcruntime:memcpy.obj
 0001:000101d1       Mov5YmmBlocksNT            00000001800111d1     libvcruntime:memcpy.obj
 0001:000101e5       Mov4YmmBlocksNT            00000001800111e5     libvcruntime:memcpy.obj
 0001:000101f3       Mov3YmmBlocksNT            00000001800111f3     libvcruntime:memcpy.obj
 0001:00010201       Mov2YmmBlocksNT            0000000180011201     libvcruntime:memcpy.obj
 0001:0001020f       Mov1YmmBlocksNT            000000018001120f     libvcruntime:memcpy.obj
 0001:00010216       Mov0YmmBlocksNT            0000000180011216     libvcruntime:memcpy.obj
 0001:00010230       NoAVX                      0000000180011230     libvcruntime:memcpy.obj
 0001:00010246       MoveWithXMM                0000000180011246     libvcruntime:memcpy.obj
 0001:00010280       XmmLoop                    0000000180011280     libvcruntime:memcpy.obj
 0001:000102ec       MovUpTo128WithXMM          00000001800112ec     libvcruntime:memcpy.obj
 0001:00010309       Mov8XmmBlocks              0000000180011309     libvcruntime:memcpy.obj
 0001:00010317       Mov7XmmBlocks              0000000180011317     libvcruntime:memcpy.obj
 0001:00010325       Mov6XmmBlocks              0000000180011325     libvcruntime:memcpy.obj
 0001:00010333       Mov5XmmBlocks              0000000180011333     libvcruntime:memcpy.obj
 0001:00010341       Mov4XmmBlocks              0000000180011341     libvcruntime:memcpy.obj
 0001:0001034f       Mov3XmmBlocks              000000018001134f     libvcruntime:memcpy.obj
 0001:0001035d       Mov2XmmBlocks              000000018001135d     libvcruntime:memcpy.obj
 0001:0001036b       Mov1XmmBlocks              000000018001136b     libvcruntime:memcpy.obj
 0001:00010372       Mov0XmmBlocks              0000000180011372     libvcruntime:memcpy.obj
 0001:00010380       CopyDown                   0000000180011380     libvcruntime:memcpy.obj
 0001:0001039b       XmmMovAlign                000000018001139b     libvcruntime:memcpy.obj
 0001:000103b3       XmmMovLargeTest            00000001800113b3     libvcruntime:memcpy.obj
 0001:000103d0       XmmMovLargeOuter           00000001800113d0     libvcruntime:memcpy.obj
 0001:000103d7       XmmMovLargeInner           00000001800113d7     libvcruntime:memcpy.obj
 0001:0001042d       XmmMovSmallTest            000000018001142d     libvcruntime:memcpy.obj
 0001:00010440       XmmMovSmallLoop            0000000180011440     libvcruntime:memcpy.obj
 0001:00010450       XmmMovTrailing             0000000180011450     libvcruntime:memcpy.obj
 0001:00010459       XmmMovReturn               0000000180011459     libvcruntime:memcpy.obj
 0001:00010460       $$000000                   0000000180011460     libucrt:strncmp.obj
 0001:00010500       __scrt_is_nonwritable_in_current_image$filt$0 0000000180011500 f   LIBCMT:utility.obj
 0001:00010518       ?fin$0@?0??dllmain_crt_process_attach@@YAHQEAUHINSTANCE__@@QEAX@Z@4HA 0000000180011518 f   LIBCMT:dll_dllmain.obj
 0001:0001052f       ?fin$0@?0??dllmain_crt_process_detach@@YAH_N@Z@4HA 000000018001152f f   LIBCMT:dll_dllmain.obj
 0001:00010548       ?fin$1@?0??dllmain_crt_process_detach@@YAH_N@Z@4HA 0000000180011548 f   LIBCMT:dll_dllmain.obj
 0001:0001055c       ?filt$0@?0??dllmain_dispatch@@YAHQEAUHINSTANCE__@@KQEAX@Z@4HA 000000018001155c f   LIBCMT:dll_dllmain.obj
 0001:00010592       ?filt$0@?0???$_CallSETranslator@V__FrameHandler3@@@@YAHPEAUEHExceptionRecord@@PEA_KPEAU_CONTEXT@@PEAU_xDISPATCHER_CONTEXT@@PEBU_s_FuncInfo@@K1H@Z@4HA 0000000180011592 f   libvcruntime:risctrnsctrl.obj
 0001:00010639       __DestructExceptionObject$filt$0 0000000180011639 f   libvcruntime:ehhelpers.obj
 0001:000106cb       ?filt$0@?0??CxxCallCatchBlock@__FrameHandler3@@SAPEAXPEAU_EXCEPTION_RECORD@@@Z@4HA 00000001800116cb f   libvcruntime:frame.obj
 0001:000106ec       ?fin$1@?0??CxxCallCatchBlock@__FrameHandler3@@SAPEAXPEAU_EXCEPTION_RECORD@@@Z@4HA 00000001800116ec f   libvcruntime:frame.obj
 0001:0001076f       ?filt$0@?0??FrameUnwindToState@__FrameHandler3@@SAXPEA_KPEAU_xDISPATCHER_CONTEXT@@PEBU_s_FuncInfo@@H@Z@4HA 000000018001176f f   libvcruntime:frame.obj
 0001:00010785       ?fin$1@?0??FrameUnwindToState@__FrameHandler3@@SAXPEA_KPEAU_xDISPATCHER_CONTEXT@@PEBU_s_FuncInfo@@H@Z@4HA 0000000180011785 f   libvcruntime:frame.obj
 0001:000107b0       _query_new_handler$fin$0   00000001800117b0 f   libucrt:new_handler.obj
 0001:000107c6       _set_new_handler$fin$0     00000001800117c6 f   libucrt:new_handler.obj
 0001:000107dc       ?fin$0@?0???$?RV<lambda_0ae27a3a962d80f24befdcbee591983d>@@AEAV<lambda_8d0ee55de4b1038c4002e0adecdf1839>@@V<lambda_dc504788e8f1664fe9b84e20bfb512f2>@@@?$__crt_seh_guarded_call@X@@QEAAX$$QEAV<lambda_0ae27a3a962d80f24befdcbee591983d>@@AEAV<lambda_8d0ee55de4b1038c4002e0adecdf1839>@@$$QEAV<lambda_dc504788e8f1664fe9b84e20bfb512f2>@@@Z@4HA 00000001800117dc f   libucrt:per_thread_data.obj
 0001:000107dc       ?fin$0@?0???$?RV<lambda_2d41944a1d46af3157314b8a01080d33>@@AEAV<lambda_8f455de75cd7d7f24b4096f044d8b9e6>@@V<lambda_aa500f224e6afead328df44964fe2772>@@@?$__crt_seh_guarded_call@X@@QEAAX$$QEAV<lambda_2d41944a1d46af3157314b8a01080d33>@@AEAV<lambda_8f455de75cd7d7f24b4096f044d8b9e6>@@$$QEAV<lambda_aa500f224e6afead328df44964fe2772>@@@Z@4HA 00000001800117dc f   libucrt:per_thread_data.obj
 0001:000107dc       ?fin$0@?0???$?RV<lambda_aa87e3671a710a21b5dc78c0bdf72e11>@@AEAV<lambda_92619d2358a28f41a33ba319515a20b9>@@V<lambda_6992ecaafeb10aed2b74cb1fae11a551>@@@?$__crt_seh_guarded_call@X@@QEAAX$$QEAV<lambda_aa87e3671a710a21b5dc78c0bdf72e11>@@AEAV<lambda_92619d2358a28f41a33ba319515a20b9>@@$$QEAV<lambda_6992ecaafeb10aed2b74cb1fae11a551>@@@Z@4HA 00000001800117dc f   libucrt:per_thread_data.obj
 0001:000107dc       ?fin$0@?0???$?RV<lambda_f2e299630e499de9f9a165e60fcd3db5>@@AEAV<lambda_2ae9d31cdba2644fcbeaf08da7c24588>@@V<lambda_40d01ff24d0e7b3814fdbdcee8eab3c7>@@@?$__crt_seh_guarded_call@X@@QEAAX$$QEAV<lambda_f2e299630e499de9f9a165e60fcd3db5>@@AEAV<lambda_2ae9d31cdba2644fcbeaf08da7c24588>@@$$QEAV<lambda_40d01ff24d0e7b3814fdbdcee8eab3c7>@@@Z@4HA 00000001800117dc f   libucrt:per_thread_data.obj
 0001:000107dc       ?fin$0@?0???$?RV<lambda_450d765d439847d4c735a33c368b5fc0>@@AEAV<lambda_44731a7d0e6d81c3e6aa82d741081786>@@V<lambda_601a2a7da3b7a96e9554ac7215c4b07c>@@@?$__crt_seh_guarded_call@P6AXH@Z@@QEAAP6AXH@Z$$QEAV<lambda_450d765d439847d4c735a33c368b5fc0>@@AEAV<lambda_44731a7d0e6d81c3e6aa82d741081786>@@$$QEAV<lambda_601a2a7da3b7a96e9554ac7215c4b07c>@@@Z@4HA 00000001800117dc f   libucrt:signal.obj
 0001:000107dc       ?fin$0@?0???$?RV<lambda_d80eeec6fff315bfe5c115232f3240e3>@@AEAV<lambda_6e4b09c48022b2350581041d5f6b0c4c>@@V<lambda_2358e3775559c9db80273638284d5e45>@@@?$__crt_seh_guarded_call@X@@QEAAX$$QEAV<lambda_d80eeec6fff315bfe5c115232f3240e3>@@AEAV<lambda_6e4b09c48022b2350581041d5f6b0c4c>@@$$QEAV<lambda_2358e3775559c9db80273638284d5e45>@@@Z@4HA 00000001800117dc f   libucrt:exit.obj
 0001:000107dc       ?fin$0@?0???$?RV<lambda_638799b9deba96c50f710eeac98168cd>@@AEAV<lambda_22ebabd17bc4fa466a2aca6d8deb888d>@@V<lambda_a6f7d7db0129f75315ebf26d50c089f1>@@@?$__crt_seh_guarded_call@H@@QEAAH$$QEAV<lambda_638799b9deba96c50f710eeac98168cd>@@AEAV<lambda_22ebabd17bc4fa466a2aca6d8deb888d>@@$$QEAV<lambda_a6f7d7db0129f75315ebf26d50c089f1>@@@Z@4HA 00000001800117dc f   libucrt:onexit.obj
 0001:000107dc       ?fin$0@?0???$?RV<lambda_7777bce6b2f8c936911f934f8298dc43>@@AEAV<lambda_f03950bc5685219e0bcd2087efbe011e>@@V<lambda_3883c3dff614d5e0c5f61bb1ac94921c>@@@?$__crt_seh_guarded_call@H@@QEAAH$$QEAV<lambda_7777bce6b2f8c936911f934f8298dc43>@@AEAV<lambda_f03950bc5685219e0bcd2087efbe011e>@@$$QEAV<lambda_3883c3dff614d5e0c5f61bb1ac94921c>@@@Z@4HA 00000001800117dc f   libucrt:onexit.obj
 0001:000107f6       ?filt$0@?0???R<lambda_6e4b09c48022b2350581041d5f6b0c4c>@@QEBA@XZ@4HA 00000001800117f6 f   libucrt:exit.obj
 0001:00010823       ?fin$0@?0???$?RV<lambda_efdfa57d1f175319df784efa44bb7b81>@@AEAV<lambda_5f0a4c1567f8adc6734073e5d1e1b35c>@@V<lambda_2e8a7d3640ea6ccb4c2413664c2db6fd>@@@?$__crt_seh_guarded_call@X@@QEAAX$$QEAV<lambda_efdfa57d1f175319df784efa44bb7b81>@@AEAV<lambda_5f0a4c1567f8adc6734073e5d1e1b35c>@@$$QEAV<lambda_2e8a7d3640ea6ccb4c2413664c2db6fd>@@@Z@4HA 0000000180011823 f   libucrt:mbctype.obj
 0001:0001083d       ?fin$0@?0??update_thread_multibyte_data_internal@@YAPEAU__crt_multibyte_data@@QEAU__acrt_ptd@@QEAPEAU1@@Z@4HA 000000018001183d f   libucrt:mbctype.obj
 0001:00010856       __acrt_initialize_lowio$fin$0 0000000180011856 f   libucrt:ioinit.obj
 0001:00010856       __acrt_lowio_ensure_fh_exists$fin$0 0000000180011856 f   libucrt:osfinfo.obj
 0001:0001086f       raise$fin$0                000000018001186f f   libucrt:signal.obj
 0001:00010890       ?fin$0@?0???$?RV<lambda_842d9ff0dc9ef11c61343bbaebe7f885>@@AEAV<lambda_c5860995281e5c4ce005b3de8f5874ee>@@V<lambda_d90129c13df834fdcbf8d2b88dafcf2d>@@@?$__crt_seh_guarded_call@X@@QEAAX$$QEAV<lambda_842d9ff0dc9ef11c61343bbaebe7f885>@@AEAV<lambda_c5860995281e5c4ce005b3de8f5874ee>@@$$QEAV<lambda_d90129c13df834fdcbf8d2b88dafcf2d>@@@Z@4HA 0000000180011890 f   libucrt:fflush.obj
 0001:000108ab       ?fin$0@?0???$?RV<lambda_886d6c58226a84441f68b9f2b8217b83>@@AEAV<lambda_ab61a845afdef5b7c387490eaf3616ee>@@V<lambda_f7f22ab5edc0698d5f6905b0d3f44752>@@@?$__crt_seh_guarded_call@X@@QEAAX$$QEAV<lambda_886d6c58226a84441f68b9f2b8217b83>@@AEAV<lambda_ab61a845afdef5b7c387490eaf3616ee>@@$$QEAV<lambda_f7f22ab5edc0698d5f6905b0d3f44752>@@@Z@4HA 00000001800118ab f   libucrt:fflush.obj
 0001:000108c8       ?fin$0@?0???$?RV<lambda_410d79af7f07d98d83a3f525b3859a53>@@AEAV<lambda_3e16ef9562a7dcce91392c22ab16ea36>@@V<lambda_38119f0e861e05405d8a144b9b982f0a>@@@?$__crt_seh_guarded_call@X@@QEAAX$$QEAV<lambda_410d79af7f07d98d83a3f525b3859a53>@@AEAV<lambda_3e16ef9562a7dcce91392c22ab16ea36>@@$$QEAV<lambda_38119f0e861e05405d8a144b9b982f0a>@@@Z@4HA 00000001800118c8 f   libucrt:wsetlocale.obj
 0001:000108e2       __acrt_update_thread_locale_data$fin$0 00000001800118e2 f   libucrt:locale_refcounting.obj
 0001:000108fb       ?fin$0@?0???$?RV<lambda_ad8af0d99a0adf03d037d7dffe354bb5>@@AEAV<lambda_c9ba49e555ba839a7b07aa3fbecb7617>@@V<lambda_2f1ebd5d68526518146ae959c9e734c8>@@@?$__crt_seh_guarded_call@H@@QEAAH$$QEAV<lambda_ad8af0d99a0adf03d037d7dffe354bb5>@@AEAV<lambda_c9ba49e555ba839a7b07aa3fbecb7617>@@$$QEAV<lambda_2f1ebd5d68526518146ae959c9e734c8>@@@Z@4HA 00000001800118fb f   libucrt:close.obj
 0001:000108fb       ?fin$0@?0???$?RV<lambda_a37b2b86f63e897a80ea819b0eb08c01>@@AEAV<lambda_38ce7e780aa69e748d6df282ebc68efe>@@V<lambda_99fb1378e971ab6e7edea83e3a7a83a2>@@@?$__crt_seh_guarded_call@H@@QEAAH$$QEAV<lambda_a37b2b86f63e897a80ea819b0eb08c01>@@AEAV<lambda_38ce7e780aa69e748d6df282ebc68efe>@@$$QEAV<lambda_99fb1378e971ab6e7edea83e3a7a83a2>@@@Z@4HA 00000001800118fb f   libucrt:commit.obj
 0001:00010915       _write_internal$fin$0      0000000180011915 f   libucrt:write.obj
 0001:0001092c       _fcloseall$fin$0           000000018001192c f   libucrt:closeall.obj
 0001:00010945       ?fin$0@?0??_fclose_internal@@YAHQEAU_iobuf@@AEAV__crt_cached_ptd_host@@@Z@4HA 0000000180011945 f   libucrt:fclose.obj
 0001:00010960       _ctrlfp$filt$0             0000000180011960 f   libucrt:fpctrl.obj
 0001:00010990       _IsNonwritableInCurrentImage$filt$0 0000000180011990 f   LIBCMT:pesect.obj
 0001:000109b0       ??__FModelInfo@@YAXXZ      00000001800119b0 f   main.obj
 0002:00000358       ?astime$initializer$@@3P6AXXZEA 0000000180012358     main.obj
 0002:00000360       ?ModelInfo$initializer$@@3P6AXXZEA 0000000180012360     main.obj
 0002:00000480       ?ExceptionTemplate@?1??UnwindNestedFrames@__FrameHandler3@@SAXPEA_KPEAUEHExceptionRecord@@PEAU_CONTEXT@@0PEAXPEBU_s_FuncInfo@@HHPEBU_s_HandlerType@@PEAU_xDISPATCHER_CONTEXT@@E@Z@4U_EXCEPTION_RECORD@@B 0000000180012480     libvcruntime:risctrnsctrl.obj
 0002:00000550       ?tokenTable@@3QBUStringLiteral@@B 0000000180012550     libvcruntime:undname.obj
 0002:00000660       ?nameTable@@3QBUStringLiteral@@B 0000000180012660     libvcruntime:undname.obj
 0002:00000b90       ?rttiTable@@3QBUStringLiteral@@B 0000000180012b90     libvcruntime:undname.obj
 0002:00000be0       ?IndirectionName@@3QBUStringLiteral@@B 0000000180012be0     libvcruntime:undname.obj
 0002:00000c40       ?PrefixName@@3QBUStringLiteral@@B 0000000180012c40     libvcruntime:undname.obj
 0002:00001408       $cppxdata$?try_cor_exit_process@@YAXI@Z 0000000180013408     libucrt:exit.obj
 0002:00001430       $cppxdata$?common_exit@@YAXHW4_crt_exit_cleanup_mode@@W4_crt_exit_return_mode@@@Z 0000000180013430     libucrt:exit.obj
 0002:00001480       $cppxdata$__dcrt_uninitialize_environments_nolock 0000000180013480     libucrt:environment_initialization.obj
 0002:00001480       $cppxdata$__acrt_freeptd   0000000180013480     libucrt:per_thread_data.obj
 0002:00001480       $cppxdata$__acrt_getptd_head 0000000180013480     libucrt:per_thread_data.obj
 0002:00001480       $cppxdata$__acrt_getptd_noexit 0000000180013480     libucrt:per_thread_data.obj
 0002:00001480       $cppxdata$__acrt_getptd_noexit_explicit 0000000180013480     libucrt:per_thread_data.obj
 0002:000014a8       $cppxdata$_execute_onexit_table 00000001800134a8     libucrt:onexit.obj
 0002:000014d0       __acrt_initializers        00000001800134d0     libucrt:initialization.obj
 0002:000015d0       ?errtable@@3QBUerrentry@?A0x31fdb9ec@@B 00000001800135d0     libucrt:errno.obj
 0002:00001738       ?_mb_locale_names@@3QBQEB_WB 0000000180013738     libucrt:mbctype.obj
 0002:000017a0       ?module_names@?A0x391cf84c@@3QBQEB_WB 00000001800137a0     libucrt:winapi_thunks.obj
 0002:00001df8       ?candidate_modules@?1??try_get_AreFileApisANSI@@YAP6AHXZXZ@4QBW4module_id@?A0x391cf84c@@B 0000000180013df8     libucrt:winapi_thunks.obj
 0002:00001e10       ?candidate_modules@?1??try_get_FlsGetValue2@@YAP6APEAXK@ZXZ@4QBW4module_id@?A0x391cf84c@@B 0000000180013e10     libucrt:winapi_thunks.obj
 0002:00001e28       ?candidate_modules@?1??try_get_LCMapStringEx@@YAP6AHPEB_WK0HPEA_WHPEAU_nlsversioninfo@@PEAX_J@ZXZ@4QBW4module_id@?A0x391cf84c@@B 0000000180013e28     libucrt:winapi_thunks.obj
 0002:00001e40       ?candidate_modules@?1??try_get_LocaleNameToLCID@@YAP6AKPEB_WK@ZXZ@4QBW4module_id@?A0x391cf84c@@B 0000000180013e40     libucrt:winapi_thunks.obj
 0002:00001e5c       ?candidate_modules@?1??try_get_AppPolicyGetProcessTerminationMethod@@YAP6AJPEAXPEAW4AppPolicyProcessTerminationMethod@@@ZXZ@4QBW4module_id@?A0x391cf84c@@B 0000000180013e5c     libucrt:winapi_thunks.obj
 0002:00002b10       ?LcidToLocaleNameTable@?A0x881e4c05@@3QBULcidToLocaleName@1@B 0000000180014b10     libucrt:lcidtoname_downlevel.obj
 0002:00004570       ?LocaleNameToIndexTable@?A0x881e4c05@@3QBULocaleNameIndex@1@B 0000000180016570     libucrt:lcidtoname_downlevel.obj
 0002:00005e08       $cppxdata$?write_double_translated_ansi_nolock@@YA?AUwrite_result@?A0x17268360@@HQEBDIAEAV__crt_cached_ptd_host@@@Z 0000000180017e08     libucrt:write.obj
 0002:00005e30       __real_ninf                0000000180017e30     libucrt:log10.obj
 0002:00005e40       __real_inf                 0000000180017e40     libucrt:log10.obj
 0002:00005e50       __real_neg_qnan            0000000180017e50     libucrt:log10.obj
 0002:00005e60       __real_qnanbit             0000000180017e60     libucrt:log10.obj
 0002:00005e70       __int_1023                 0000000180017e70     libucrt:log10.obj
 0002:00005e80       __mask_001                 0000000180017e80     libucrt:log10.obj
 0002:00005e90       __mask_mant                0000000180017e90     libucrt:log10.obj
 0002:00005ea0       __mask_mant_top8           0000000180017ea0     libucrt:log10.obj
 0002:00005eb0       __mask_mant9               0000000180017eb0     libucrt:log10.obj
 0002:00005ec0       __real_log10_e             0000000180017ec0     libucrt:log10.obj
 0002:00005ed0       __real_log10_e_lead        0000000180017ed0     libucrt:log10.obj
 0002:00005ee0       __real_log10_e_tail        0000000180017ee0     libucrt:log10.obj
 0002:00005ef0       __real_log10_2_lead        0000000180017ef0     libucrt:log10.obj
 0002:00005f00       __real_log10_2_tail        0000000180017f00     libucrt:log10.obj
 0002:00005f10       __real_two                 0000000180017f10     libucrt:log10.obj
 0002:00005f20       __real_one                 0000000180017f20     libucrt:log10.obj
 0002:00005f30       __real_half                0000000180017f30     libucrt:log10.obj
 0002:00005f40       __mask_100                 0000000180017f40     libucrt:log10.obj
 0002:00005f50       __real_1_over_512          0000000180017f50     libucrt:log10.obj
 0002:00005f60       __real_1_over_2            0000000180017f60     libucrt:log10.obj
 0002:00005f70       __real_1_over_3            0000000180017f70     libucrt:log10.obj
 0002:00005f80       __real_1_over_4            0000000180017f80     libucrt:log10.obj
 0002:00005f90       __real_1_over_5            0000000180017f90     libucrt:log10.obj
 0002:00005fa0       __real_1_over_6            0000000180017fa0     libucrt:log10.obj
 0002:00005fb0       __real_neg_1023            0000000180017fb0     libucrt:log10.obj
 0002:00005fc0       __mask_2045                0000000180017fc0     libucrt:log10.obj
 0002:00005fd0       __real_threshold           0000000180017fd0     libucrt:log10.obj
 0002:00005fe0       __real_near_one_lt         0000000180017fe0     libucrt:log10.obj
 0002:00005ff0       __real_near_one_gt         0000000180017ff0     libucrt:log10.obj
 0002:00006000       __real_min_norm            0000000180018000     libucrt:log10.obj
 0002:00006010       __real_notsign             0000000180018010     libucrt:log10.obj
 0002:00006020       __real_ca1                 0000000180018020     libucrt:log10.obj
 0002:00006030       __real_ca2                 0000000180018030     libucrt:log10.obj
 0002:00006040       __real_ca3                 0000000180018040     libucrt:log10.obj
 0002:00006050       __real_ca4                 0000000180018050     libucrt:log10.obj
 0002:00006060       __mask_lower               0000000180018060     libucrt:log10.obj
 0002:00006070       __flag_x_zero              0000000180018070     libucrt:log10.obj
 0002:00006074       __flag_x_neg               0000000180018074     libucrt:log10.obj
 0002:00006078       __flag_x_nan               0000000180018078     libucrt:log10.obj
 0002:00006090       DoubleNegZero              0000000180018090     libucrt:floorceil_sse41.obj
 0002:000060a0       DoubleLargestNumBelowHalf  00000001800180a0     libucrt:floorceil_sse41.obj
 0002:000060b0       FloatNegZero               00000001800180b0     libucrt:floorceil_sse41.obj
 0002:000060c0       FloatLargestNumBelowHalf   00000001800180c0     libucrt:floorceil_sse41.obj
 0002:00007980       L_real_one                 0000000180019980     libucrt:cosf.obj
 0002:00007990       L_one_half                 0000000180019990     libucrt:cosf.obj
 0002:000079a0       L_2bypi                    00000001800199a0     libucrt:cosf.obj
 0002:000079b0       L_one_sixth                00000001800199b0     libucrt:cosf.obj
 0002:000079c0       L_piby2                    00000001800199c0     libucrt:cosf.obj
 0002:000079d0       L_piby2_1                  00000001800199d0     libucrt:cosf.obj
 0002:000079e0       L_piby2_1tail              00000001800199e0     libucrt:cosf.obj
 0002:000079f0       L_piby2_2                  00000001800199f0     libucrt:cosf.obj
 0002:00007a00       L_piby2_2tail              0000000180019a00     libucrt:cosf.obj
 0002:00007a10       L_large_x_sse2             0000000180019a10     libucrt:cosf.obj
 0002:00007a20       L_large_x_fma3             0000000180019a20     libucrt:cosf.obj
 0002:00007a30       L_sign_mask                0000000180019a30     libucrt:cosf.obj
 0002:00007a40       L__int_three               0000000180019a40     libucrt:cosf.obj
 0002:00007a50       L__min_norm_double         0000000180019a50     libucrt:cosf.obj
 0002:00007a60       L_two_to_neg_7             0000000180019a60     libucrt:cosf.obj
 0002:00007a70       L_two_to_neg_13            0000000180019a70     libucrt:cosf.obj
 0002:00007a80       L_two_to_32_float          0000000180019a80     libucrt:cosf.obj
 0002:00007a88       L_one_float                0000000180019a88     libucrt:cosf.obj
 0002:00007a90       L_inf_mask_32              0000000180019a90     libucrt:cosf.obj
 0002:00007aa0       L_signbit                  0000000180019aa0     libucrt:sinf.obj
 0002:00007ab0       L_sign_mask                0000000180019ab0     libucrt:sinf.obj
 0002:00007ac0       L_one                      0000000180019ac0     libucrt:sinf.obj
 0002:00007ad0       L_int_three                0000000180019ad0     libucrt:sinf.obj
 0002:00007ae0       L_one_half                 0000000180019ae0     libucrt:sinf.obj
 0002:00007af0       L_twobypi                  0000000180019af0     libucrt:sinf.obj
 0002:00007b00       L_piby2_1                  0000000180019b00     libucrt:sinf.obj
 0002:00007b10       L_one_sixth                0000000180019b10     libucrt:sinf.obj
 0002:00007b20       L_piby2_1tail              0000000180019b20     libucrt:sinf.obj
 0002:00007b30       L_piby2_2                  0000000180019b30     libucrt:sinf.obj
 0002:00007b40       L_piby2_2tail              0000000180019b40     libucrt:sinf.obj
 0002:00007b50       L_inf_mask_32              0000000180019b50     libucrt:sinf.obj
 0002:00007b60       L_int_two                  0000000180019b60     libucrt:sinf.obj
 0002:00007b70       L_piby2_lead               0000000180019b70     libucrt:sinf.obj
 0002:00007b80       L_piby4                    0000000180019b80     libucrt:sinf.obj
 0002:00007b90       L_mask_3f2                 0000000180019b90     libucrt:sinf.obj
 0002:00007ba0       L_mask_3f8                 0000000180019ba0     libucrt:sinf.obj
 0002:00007bb0       L_large_x_fma3             0000000180019bb0     libucrt:sinf.obj
 0002:00007bb8       L_large_x_sse2             0000000180019bb8     libucrt:sinf.obj
 0002:00007bc0       L_near_one                 0000000180019bc0     libucrt:sinf.obj
 0002:00007bc8       L_two_to_32                0000000180019bc8     libucrt:sinf.obj
 0002:00007be0       L__piby2                   0000000180019be0     libucrt:remainder_piby2f_forasm.obj
 0002:00007bf0       L_piby2_lead               0000000180019bf0     libucrt:remainder_piby2_forfma3.obj
 0002:00007c00       L_fff800                   0000000180019c00     libucrt:remainder_piby2_forfma3.obj
 0002:00007c10       L_piby2_part1              0000000180019c10     libucrt:remainder_piby2_forfma3.obj
 0002:00007c20       L_piby2_part2              0000000180019c20     libucrt:remainder_piby2_forfma3.obj
 0002:00007c30       L_piby2_part3              0000000180019c30     libucrt:remainder_piby2_forfma3.obj
 0002:00007c40       L_piby2_1                  0000000180019c40     libucrt:remainder_piby2_forfma3.obj
 0002:00007c50       L_piby2_2                  0000000180019c50     libucrt:remainder_piby2_forfma3.obj
 0002:00007c60       L_piby2_3                  0000000180019c60     libucrt:remainder_piby2_forfma3.obj
 0002:00007c70       L_piby2_1tail              0000000180019c70     libucrt:remainder_piby2_forfma3.obj
 0002:00007c80       L_piby2_2tail              0000000180019c80     libucrt:remainder_piby2_forfma3.obj
 0002:00007c90       L_piby2_3tail              0000000180019c90     libucrt:remainder_piby2_forfma3.obj
 0002:00007ca0       L_sign_mask                0000000180019ca0     libucrt:remainder_piby2_forfma3.obj
 0002:00007cb0       L_twobypi                  0000000180019cb0     libucrt:remainder_piby2_forfma3.obj
 0002:00007cc0       L_point_five               0000000180019cc0     libucrt:remainder_piby2_forfma3.obj
 0002:00007cd0       L_int_three                0000000180019cd0     libucrt:remainder_piby2_forfma3.obj
 0002:00007ce0       L_inf_mask_64              0000000180019ce0     libucrt:remainder_piby2_forfma3.obj
 0002:00007cf0       L_signbit                  0000000180019cf0     libucrt:remainder_piby2_forfma3.obj
 0002:00007d00       L_r                        0000000180019d00     libucrt:remainder_piby2_forfma3.obj
 0002:00007d10       L_xc1                      0000000180019d10     libucrt:remainder_piby2_forfma3.obj
 0002:00007d20       L_xc2                      0000000180019d20     libucrt:remainder_piby2_forfma3.obj
 0002:00007d30       L_xc3                      0000000180019d30     libucrt:remainder_piby2_forfma3.obj
 0002:00007d40       L_sigma                    0000000180019d40     libucrt:remainder_piby2_forfma3.obj
 0002:00007e50       L__piby2                   0000000180019e50     libucrt:remainder_piby2f_forc.obj
 0002:00007e60       L__2_by_pi_bits            0000000180019e60     libucrt:remainder_piby2f_forc.obj
 0002:000080b0       SetSmall                   000000018001a0b0     libvcruntime:memset.obj
 0002:000080f0       SetSmallYmm                000000018001a0f0     libvcruntime:memset.obj
 0002:00008114       SetSmallYmmNT              000000018001a114     libvcruntime:memset.obj
 0002:00008138       SetSmallXmm                000000018001a138     libvcruntime:memset.obj
 0002:00008160       MoveSmall                  000000018001a160     libvcruntime:memcpy.obj
 0002:000081a0       MoveSmallYmm               000000018001a1a0     libvcruntime:memcpy.obj
 0002:000081c4       MoveSmallYmmNT             000000018001a1c4     libvcruntime:memcpy.obj
 0002:000081e8       MoveSmallXmm               000000018001a1e8     libvcruntime:memcpy.obj
 0002:00008b08       $unwind$??0bad_alloc@std@@QEAA@AEBV01@@Z 000000018001ab08     main.obj
 0002:00008b08       $unwind$??0bad_array_new_length@std@@QEAA@AEBV01@@Z 000000018001ab08     main.obj
 0002:00008b08       $unwind$??0exception@std@@QEAA@AEBV01@@Z 000000018001ab08     main.obj
 0002:00008b08       $unwind$initialize_pointers 000000018001ab08     libucrt:initialization.obj
 0002:00008b08       $unwind$uninitialize_allocated_memory 000000018001ab08     libucrt:initialization.obj
 0002:00008b08       $unwind$__acrt_initialize_locks 000000018001ab08     libucrt:locks.obj
 0002:00008b08       $unwind$__acrt_uninitialize_locks 000000018001ab08     libucrt:locks.obj
 0002:00008b08       $unwind$__acrt_get_process_end_policy 000000018001ab08     libucrt:win_policies.obj
 0002:00008b08       $unwind$__acrt_AppPolicyGetProcessTerminationMethodInternal 000000018001ab08     libucrt:winapi_thunks.obj
 0002:00008b08       $unwind$__acrt_uninitialize_winapi_thunks 000000018001ab08     libucrt:winapi_thunks.obj
 0002:00008b08       $unwind$__acrt_update_locale_info 000000018001ab08     libucrt:locale_update.obj
 0002:00008b08       $unwind$__acrt_update_locale_info_explicit 000000018001ab08     libucrt:locale_update.obj
 0002:00008b08       $unwind$__acrt_update_multibyte_info 000000018001ab08     libucrt:locale_update.obj
 0002:00008b08       $unwind$__acrt_update_multibyte_info_explicit 000000018001ab08     libucrt:locale_update.obj
 0002:00008b08       $unwind$__acrt_errno_map_os_error 000000018001ab08     libucrt:errno.obj
 0002:00008b08       $unwind$__acrt_errno_map_os_error_ptd 000000018001ab08     libucrt:errno.obj
 0002:00008b08       $unwind$__acrt_allocate_buffer_for_argv 000000018001ab08     libucrt:argv_parsing.obj
 0002:00008b08       $unwind$?exit_or_terminate_process@@YAXI_N@Z 000000018001ab08     libucrt:exit.obj
 0002:00008b08       $unwind$__acrt_uninitialize_stdio 000000018001ab08     libucrt:_file.obj
 0002:00008b08       $unwind$__acrt_stdio_free_buffer_nolock 000000018001ab08     libucrt:_freebuf.obj
 0002:00008b08       $unwind$??2@YAPEAX_K@Z     000000018001ab08     LIBCMT:new_scalar.obj
 0002:00008b08       $unwind$??_Gtype_info@@UEAAPEAXI@Z 000000018001ab08     LIBCMT:std_type_info_static.obj
 0002:00008b08       $unwind$__scrt_initialize_onexit_tables 000000018001ab08     LIBCMT:utility.obj
 0002:00008b08       $unwind$__scrt_release_startup_lock 000000018001ab08     LIBCMT:utility.obj
 0002:00008b08       $unwind$__scrt_uninitialize_crt 000000018001ab08     LIBCMT:utility.obj
 0002:00008b08       $unwind$_onexit            000000018001ab08     LIBCMT:utility.obj
 0002:00008b08       $unwind$??0length_error@std@@QEAA@AEBV01@@Z 000000018001ab08     libcpmt:xthrow.obj
 0002:00008b08       $unwind$??0logic_error@std@@QEAA@AEBV01@@Z 000000018001ab08     libcpmt:xthrow.obj
 0002:00008b08       $unwind$_IsExceptionObjectToBeDestroyed 000000018001ab08     libvcruntime:ehhelpers.obj
 0002:00008b08       $unwind$?GetUnwindTryBlock@__FrameHandler3@@SAHPEA_KPEAU_xDISPATCHER_CONTEXT@@PEBU_s_FuncInfo@@@Z 000000018001ab08     libvcruntime:ehstate.obj
 0002:00008b08       $unwind$?StateFromIp@__FrameHandler3@@SAHPEBU_s_FuncInfo@@PEAU_xDISPATCHER_CONTEXT@@_K@Z 000000018001ab08     libvcruntime:ehstate.obj
 0002:00008b08       $unwind$??0bad_exception@std@@QEAA@AEBV01@@Z 000000018001ab08     libvcruntime:frame.obj
 0002:00008b08       $unwind$?ExFilterRethrow@@YAHPEAU_EXCEPTION_POINTERS@@PEAUEHExceptionRecord@@PEAH@Z 000000018001ab08     libvcruntime:frame.obj
 0002:00008b08       $unwind$__vcrt_initialize_locks 000000018001ab08     libvcruntime:locks.obj
 0002:00008b08       $unwind$__vcrt_uninitialize_locks 000000018001ab08     libvcruntime:locks.obj
 0002:00008b08       $unwind$__vcrt_freeptd_for_this_thread 000000018001ab08     libvcruntime:per_thread_data.obj
 0002:00008b08       $unwind$?ExecutionInCatch@__FrameHandler3@@SA_NPEAU_xDISPATCHER_CONTEXT@@PEBU_s_FuncInfo@@@Z 000000018001ab08     libvcruntime:risctrnsctrl.obj
 0002:00008b08       $unwind$_CreateFrameInfo   000000018001ab08     libvcruntime:risctrnsctrl.obj
 0002:00008b08       $unwind$_SetImageBase      000000018001ab08     libvcruntime:risctrnsctrl.obj
 0002:00008b08       $unwind$_SetThrowImageBase 000000018001ab08     libvcruntime:risctrnsctrl.obj
 0002:00008b08       $unwind$__std_exception_destroy 000000018001ab08     libvcruntime:std_exception.obj
 0002:00008b08       $unwind$__std_type_info_destroy_list 000000018001ab08     libvcruntime:std_type_info.obj
 0002:00008b10       $unwind$??_Gbad_alloc@std@@UEAAPEAXI@Z 000000018001ab10     main.obj
 0002:00008b10       $unwind$??_Gbad_array_new_length@std@@UEAAPEAXI@Z 000000018001ab10     main.obj
 0002:00008b10       $unwind$??_Gexception@std@@UEAAPEAXI@Z 000000018001ab10     main.obj
 0002:00008b10       $unwind$??$common_initialize_environment_nolock@D@@YAHXZ 000000018001ab10     libucrt:environment_initialization.obj
 0002:00008b10       $unwind$?replace_current_thread_locale_nolock@@YAXQEAU__acrt_ptd@@QEAU__crt_locale_data@@@Z 000000018001ab10     libucrt:per_thread_data.obj
 0002:00008b10       $unwind$__acrt_execute_uninitializers 000000018001ab10     libucrt:shared_initialization.obj
 0002:00008b10       $unwind$__acrt_LocaleNameToLCID 000000018001ab10     libucrt:winapi_thunks.obj
 0002:00008b10       $unwind$?free_crt_array_internal@@YAXQEAPEBX_K@Z 000000018001ab10     libucrt:inittime.obj
 0002:00008b10       $unwind$_updatetlocinfoEx_nolock 000000018001ab10     libucrt:locale_refcounting.obj
 0002:00008b10       $unwind$__acrt_uninitialize_lowio 000000018001ab10     libucrt:ioinit.obj
 0002:00008b10       $unwind$?setSBCS@@YAXPEAU__crt_multibyte_data@@@Z 000000018001ab10     libucrt:mbctype.obj
 0002:00008b10       $unwind$_initterm_e        000000018001ab10     libucrt:initterm.obj
 0002:00008b10       $unwind$strncpy_s          000000018001ab10     libucrt:strncpy_s.obj
 0002:00008b10       $unwind$_RTC_Initialize    000000018001ab10     LIBCMT:initsect.obj
 0002:00008b10       $unwind$_RTC_Terminate     000000018001ab10     LIBCMT:initsect.obj
 0002:00008b10       $unwind$??_Glength_error@std@@UEAAPEAXI@Z 000000018001ab10     libcpmt:xthrow.obj
 0002:00008b10       $unwind$??_Glogic_error@std@@UEAAPEAXI@Z 000000018001ab10     libcpmt:xthrow.obj
 0002:00008b10       $unwind$__C_specific_handler_noexcept 000000018001ab10     libvcruntime:chandler_noexcept.obj
 0002:00008b10       $unwind$__FrameUnwindFilter 000000018001ab10     libvcruntime:ehhelpers.obj
 0002:00008b10       $unwind$?SetUnwindTryBlock@__FrameHandler3@@SAXPEA_KPEAU_xDISPATCHER_CONTEXT@@PEBU_s_FuncInfo@@H@Z 000000018001ab10     libvcruntime:ehstate.obj
 0002:00008b10       $unwind$??_Gbad_exception@std@@UEAAPEAXI@Z 000000018001ab10     libvcruntime:frame.obj
 0002:00008b10       $unwind$_FindAndUnlinkFrame 000000018001ab10     libvcruntime:risctrnsctrl.obj
 0002:00008b1c       $unwind$?_Throw_bad_array_new_length@std@@YAXXZ 000000018001ab1c     main.obj
 0002:00008b1c       $unwind$_raise_excf        000000018001ab1c     libucrt:fpexcept.obj
 0002:00008b1c       $unwind$?__scrt_throw_std_bad_alloc@@YAXXZ 000000018001ab1c     LIBCMT:throw_bad_alloc.obj
 0002:00008b1c       $unwind$?__scrt_throw_std_bad_array_new_length@@YAXXZ 000000018001ab1c     LIBCMT:throw_bad_alloc.obj
 0002:00008b1c       $unwind$?_Xlength_error@std@@YAXPEBD@Z 000000018001ab1c     libcpmt:xthrow.obj
 0002:00008b28       $unwind$??__FModelInfo@@YAXXZ 000000018001ab28     main.obj
 0002:00008b28       $unwind$?_Xlength@?$vector@PEAUModelInfo_t@@V?$allocator@PEAUModelInfo_t@@@std@@@std@@CAXXZ 000000018001ab28     main.obj
 0002:00008b28       $unwind$__dcrt_terminate_console_output 000000018001ab28     libucrt:initcon.obj
 0002:00008b28       $unwind$??$uninitialize_environment_internal@D@@YAXAEAPEAPEAD@Z 000000018001ab28     libucrt:environment_initialization.obj
 0002:00008b28       $unwind$??$uninitialize_environment_internal@_W@@YAXAEAPEAPEA_W@Z 000000018001ab28     libucrt:environment_initialization.obj
 0002:00008b28       $unwind$?initialize_multibyte@@YAHXZ 000000018001ab28     libucrt:multibyte_initializer.obj
 0002:00008b28       $unwind$__acrt_thread_attach 000000018001ab28     libucrt:initialization.obj
 0002:00008b28       $unwind$__acrt_thread_detach 000000018001ab28     libucrt:initialization.obj
 0002:00008b28       $unwind$__acrt_uninitialize 000000018001ab28     libucrt:initialization.obj
 0002:00008b28       $unwind$__acrt_uninitialize_critical 000000018001ab28     libucrt:initialization.obj
 0002:00008b28       $unwind$initialize_c       000000018001ab28     libucrt:initialization.obj
 0002:00008b28       $unwind$uninitialize_allocated_io_buffers 000000018001ab28     libucrt:initialization.obj
 0002:00008b28       $unwind$uninitialize_environment 000000018001ab28     libucrt:initialization.obj
 0002:00008b28       $unwind$__acrt_getptd      000000018001ab28     libucrt:per_thread_data.obj
 0002:00008b28       $unwind$__acrt_initialize_ptd 000000018001ab28     libucrt:per_thread_data.obj
 0002:00008b28       $unwind$__acrt_uninitialize_ptd 000000018001ab28     libucrt:per_thread_data.obj
 0002:00008b28       $unwind$__acrt_AreFileApisANSI 000000018001ab28     libucrt:winapi_thunks.obj
 0002:00008b28       $unwind$__acrt_initialize_winapi_thunks 000000018001ab28     libucrt:winapi_thunks.obj
 0002:00008b28       $unwind$__acrt_tls2_supported 000000018001ab28     libucrt:winapi_thunks.obj
 0002:00008b28       $unwind$__acrt_release_locale_ref 000000018001ab28     libucrt:locale_refcounting.obj
 0002:00008b28       $unwind$_isatty            000000018001ab28     libucrt:isatty.obj
 0002:00008b28       $unwind$_get_osfhandle     000000018001ab28     libucrt:osfinfo.obj
 0002:00008b28       $unwind$__acrt_initialize_multibyte 000000018001ab28     libucrt:mbctype.obj
 0002:00008b28       $unwind$__acrt_update_thread_multibyte_data 000000018001ab28     libucrt:mbctype.obj
 0002:00008b28       $unwind$__doserrno         000000018001ab28     libucrt:errno.obj
 0002:00008b28       $unwind$_errno             000000018001ab28     libucrt:errno.obj
 0002:00008b28       $unwind$_invoke_watson     000000018001ab28     libucrt:invalid_parameter.obj
 0002:00008b28       $unwind$abort              000000018001ab28     libucrt:abort.obj
 0002:00008b28       $unwind$__acrt_initialize_command_line 000000018001ab28     libucrt:argv_data.obj
 0002:00008b28       $unwind$_fileno            000000018001ab28     libucrt:fileno.obj
 0002:00008b28       $unwind$strcpy_s           000000018001ab28     libucrt:strcpy_s.obj
 0002:00008b28       $unwind$_set_errno_from_matherr 000000018001ab28     libucrt:fpexcept.obj
 0002:00008b28       $unwind$__scrt_initialize_default_local_stdio_options 000000018001ab28     LIBCMT:default_local_stdio_options.obj
 0002:00008b28       $unwind$?dllmain_crt_dispatch@@YAHQEAUHINSTANCE__@@KQEAX@Z 000000018001ab28     LIBCMT:dll_dllmain.obj
 0002:00008b28       $unwind$__GSHandlerCheck   000000018001ab28     LIBCMT:gshandler.obj
 0002:00008b28       $unwind$__scrt_acquire_startup_lock 000000018001ab28     LIBCMT:utility.obj
 0002:00008b28       $unwind$__scrt_dllmain_after_initialize_c 000000018001ab28     LIBCMT:utility.obj
 0002:00008b28       $unwind$__scrt_dllmain_before_initialize_c 000000018001ab28     LIBCMT:utility.obj
 0002:00008b28       $unwind$__scrt_dllmain_crt_thread_attach 000000018001ab28     LIBCMT:utility.obj
 0002:00008b28       $unwind$__scrt_dllmain_crt_thread_detach 000000018001ab28     LIBCMT:utility.obj
 0002:00008b28       $unwind$__scrt_dllmain_uninitialize_c 000000018001ab28     LIBCMT:utility.obj
 0002:00008b28       $unwind$__scrt_dllmain_uninitialize_critical 000000018001ab28     LIBCMT:utility.obj
 0002:00008b28       $unwind$__scrt_initialize_crt 000000018001ab28     LIBCMT:utility.obj
 0002:00008b28       $unwind$atexit             000000018001ab28     LIBCMT:utility.obj
 0002:00008b28       $unwind$__std_terminate    000000018001ab28     libvcruntime:ehhelpers.obj
 0002:00008b28       $unwind$?GetCurrentState@__FrameHandler3@@SAHPEA_KPEAU_xDISPATCHER_CONTEXT@@PEBU_s_FuncInfo@@@Z 000000018001ab28     libvcruntime:ehstate.obj
 0002:00008b28       $xdatasym$_CallSettingFrame 000000018001ab28     libvcruntime:handlers.obj
 0002:00008b28       $unwind$__vcrt_initialize  000000018001ab28     libvcruntime:initialization.obj
 0002:00008b28       $unwind$__vcrt_thread_attach 000000018001ab28     libvcruntime:initialization.obj
 0002:00008b28       $unwind$__vcrt_thread_detach 000000018001ab28     libvcruntime:initialization.obj
 0002:00008b28       $unwind$__vcrt_uninitialize 000000018001ab28     libvcruntime:initialization.obj
 0002:00008b28       $unwind$__vcrt_uninitialize_critical 000000018001ab28     libvcruntime:initialization.obj
 0002:00008b28       $unwind$__vcrt_freefls     000000018001ab28     libvcruntime:per_thread_data.obj
 0002:00008b28       $unwind$__vcrt_getptd      000000018001ab28     libvcruntime:per_thread_data.obj
 0002:00008b28       $unwind$__vcrt_initialize_ptd 000000018001ab28     libvcruntime:per_thread_data.obj
 0002:00008b28       $unwind$__vcrt_uninitialize_ptd 000000018001ab28     libvcruntime:per_thread_data.obj
 0002:00008b28       $unwind$_GetImageBase      000000018001ab28     libvcruntime:risctrnsctrl.obj
 0002:00008b28       $unwind$_GetThrowImageBase 000000018001ab28     libvcruntime:risctrnsctrl.obj
 0002:00008b30       $unwind$?Present_hook@@YAJPEAUIDirect3DDevice9@@PEBUtagRECT@@1PEAUHWND__@@PEBU_RGNDATA@@I@Z 000000018001ab30     main.obj
 0002:00008b48       $chain$3$?Present_hook@@YAJPEAUIDirect3DDevice9@@PEBUtagRECT@@1PEAUHWND__@@PEBU_RGNDATA@@I@Z 000000018001ab48     main.obj
 0002:00008b68       $chain$10$?Present_hook@@YAJPEAUIDirect3DDevice9@@PEBUtagRECT@@1PEAUHWND__@@PEBU_RGNDATA@@I@Z 000000018001ab68     main.obj
 0002:00008b94       $chain$11$?Present_hook@@YAJPEAUIDirect3DDevice9@@PEBUtagRECT@@1PEAUHWND__@@PEBU_RGNDATA@@I@Z 000000018001ab94     main.obj
 0002:00008bac       $chain$12$?Present_hook@@YAJPEAUIDirect3DDevice9@@PEBUtagRECT@@1PEAUHWND__@@PEBU_RGNDATA@@I@Z 000000018001abac     main.obj
 0002:00008bc0       $chain$14$?Present_hook@@YAJPEAUIDirect3DDevice9@@PEBUtagRECT@@1PEAUHWND__@@PEBU_RGNDATA@@I@Z 000000018001abc0     main.obj
 0002:00008bd8       $chain$15$?Present_hook@@YAJPEAUIDirect3DDevice9@@PEBUtagRECT@@1PEAUHWND__@@PEBU_RGNDATA@@I@Z 000000018001abd8     main.obj
 0002:00008be8       $chain$16$?Present_hook@@YAJPEAUIDirect3DDevice9@@PEBUtagRECT@@1PEAUHWND__@@PEBU_RGNDATA@@I@Z 000000018001abe8     main.obj
 0002:00008bf8       $chain$17$?Present_hook@@YAJPEAUIDirect3DDevice9@@PEBUtagRECT@@1PEAUHWND__@@PEBU_RGNDATA@@I@Z 000000018001abf8     main.obj
 0002:00008c08       $unwind$?DrawIndexedPrimitive_hook@@YAJPEAUIDirect3DDevice9@@W4_D3DPRIMITIVETYPE@@HIIII@Z 000000018001ac08     main.obj
 0002:00008c28       $chain$0$?DrawIndexedPrimitive_hook@@YAJPEAUIDirect3DDevice9@@W4_D3DPRIMITIVETYPE@@HIIII@Z 000000018001ac28     main.obj
 0002:00008c3c       $chain$1$?DrawIndexedPrimitive_hook@@YAJPEAUIDirect3DDevice9@@W4_D3DPRIMITIVETYPE@@HIIII@Z 000000018001ac3c     main.obj
 0002:00008c4c       $unwind$?THR@@YAKPEAX@Z    000000018001ac4c     main.obj
 0002:00008c60       $chain$2$?THR@@YAKPEAX@Z   000000018001ac60     main.obj
 0002:00008c7c       $chain$3$?THR@@YAKPEAX@Z   000000018001ac7c     main.obj
 0002:00008c90       $chain$4$?THR@@YAKPEAX@Z   000000018001ac90     main.obj
 0002:00008ca4       $chain$5$?THR@@YAKPEAX@Z   000000018001aca4     main.obj
 0002:00008cb4       $chain$6$?THR@@YAKPEAX@Z   000000018001acb4     main.obj
 0002:00008cc4       $chain$7$?THR@@YAKPEAX@Z   000000018001acc4     main.obj
 0002:00008cd8       $unwind$DllMain            000000018001acd8     main.obj
 0002:00008cd8       $unwind$_invalid_parameter_noinfo 000000018001acd8     libucrt:invalid_parameter.obj
 0002:00008cd8       $xdatasym$__remainder_piby2_fma3 000000018001acd8     libucrt:remainder_piby2_forfma3.obj
 0002:00008ce0       $unwind$??$_Emplace_reallocate@AEBQEAUModelInfo_t@@@?$vector@PEAUModelInfo_t@@V?$allocator@PEAUModelInfo_t@@@std@@@std@@AEAAPEAPEAUModelInfo_t@@QEAPEAU2@AEBQEAU2@@Z 000000018001ace0     main.obj
 0002:00008cec       $chain$2$??$_Emplace_reallocate@AEBQEAUModelInfo_t@@@?$vector@PEAUModelInfo_t@@V?$allocator@PEAUModelInfo_t@@@std@@@std@@AEAAPEAPEAUModelInfo_t@@QEAPEAU2@AEBQEAU2@@Z 000000018001acec     main.obj
 0002:00008d08       $chain$3$??$_Emplace_reallocate@AEBQEAUModelInfo_t@@@?$vector@PEAUModelInfo_t@@V?$allocator@PEAUModelInfo_t@@@std@@@std@@AEAAPEAPEAUModelInfo_t@@QEAPEAU2@AEBQEAU2@@Z 000000018001ad08     main.obj
 0002:00008d18       $chain$4$??$_Emplace_reallocate@AEBQEAUModelInfo_t@@@?$vector@PEAUModelInfo_t@@V?$allocator@PEAUModelInfo_t@@@std@@@std@@AEAAPEAPEAUModelInfo_t@@QEAPEAU2@AEBQEAU2@@Z 000000018001ad18     main.obj
 0002:00008d34       $unwind$GetMemoryBlock     000000018001ad34     buffer.obj
 0002:00008d50       $chain$1$GetMemoryBlock    000000018001ad50     buffer.obj
 0002:00008d68       $chain$2$GetMemoryBlock    000000018001ad68     buffer.obj
 0002:00008d78       $unwind$hde64_disasm       000000018001ad78     hde64.obj
 0002:00008d80       $chain$0$hde64_disasm      000000018001ad80     hde64.obj
 0002:00008d94       $chain$7$hde64_disasm      000000018001ad94     hde64.obj
 0002:00008dc0       $chain$8$hde64_disasm      000000018001adc0     hde64.obj
 0002:00008dd4       $chain$9$hde64_disasm      000000018001add4     hde64.obj
 0002:00008de4       $unwind$ProcessThreadIPs   000000018001ade4     hook.obj
 0002:00008dfc       $chain$1$ProcessThreadIPs  000000018001adfc     hook.obj
 0002:00008e14       $chain$2$ProcessThreadIPs  000000018001ae14     hook.obj
 0002:00008e24       $chain$3$ProcessThreadIPs  000000018001ae24     hook.obj
 0002:00008e3c       $unwind$Freeze             000000018001ae3c     hook.obj
 0002:00008e58       $unwind$EnableHookLL       000000018001ae58     hook.obj
 0002:00008e70       $unwind$EnableAllHooksLL   000000018001ae70     hook.obj
 0002:00008e7c       $chain$0$EnableAllHooksLL  000000018001ae7c     hook.obj
 0002:00008e90       $chain$1$EnableAllHooksLL  000000018001ae90     hook.obj
 0002:00008ea4       $chain$2$EnableAllHooksLL  000000018001aea4     hook.obj
 0002:00008eb8       $chain$3$EnableAllHooksLL  000000018001aeb8     hook.obj
 0002:00008ec8       $chain$4$EnableAllHooksLL  000000018001aec8     hook.obj
 0002:00008ed8       $chain$5$EnableAllHooksLL  000000018001aed8     hook.obj
 0002:00008ee8       $unwind$MH_CreateHook      000000018001aee8     hook.obj
 0002:00008f00       $unwind$CreateTrampolineFunction 000000018001af00     trampoline.obj
 0002:00008f28       $unwind$??0length_error@std@@QEAA@PEBD@Z 000000018001af28     libcpmt:xthrow.obj
 0002:00008f30       $xdatasym                  000000018001af30     LIBCMT:amdsecgs.obj
 0002:00008f34       $unwind$__scrt_is_nonwritable_in_current_image 000000018001af34     LIBCMT:utility.obj
 0002:00008f54       $unwind$_ctrlfp$filt$0     000000018001af54     libucrt:fpctrl.obj
 0002:00008f54       $unwind$__scrt_is_nonwritable_in_current_image$filt$0 000000018001af54     LIBCMT:utility.obj
 0002:00008f5c       $unwind$__acrt_free_locale 000000018001af5c     libucrt:locale_refcounting.obj
 0002:00008f5c       $unwind$__acrt_lowio_create_handle_array 000000018001af5c     libucrt:osfinfo.obj
 0002:00008f5c       $unwind$_seh_filter_exe    000000018001af5c     libucrt:exception_filter.obj
 0002:00008f5c       $unwind$__acrt_stdio_flush_nolock 000000018001af5c     libucrt:fflush.obj
 0002:00008f5c       $unwind$__scrt_dllmain_exception_filter 000000018001af5c     LIBCMT:utility.obj
 0002:00008f5c       $unwind$?GetHandlerSearchState@__FrameHandler3@@SAHPEA_KPEAU_xDISPATCHER_CONTEXT@@PEBU_s_FuncInfo@@@Z 000000018001af5c     libvcruntime:frame.obj
 0002:00008f5c       $unwind$?Is_bad_exception_allowed@@YAEPEBU_s_ESTypeList@@@Z 000000018001af5c     libvcruntime:frame.obj
 0002:00008f5c       $unwind$__std_exception_copy 000000018001af5c     libvcruntime:std_exception.obj
 0002:00008f70       $unwind$?dllmain_crt_process_attach@@YAHQEAUHINSTANCE__@@QEAX@Z 000000018001af70     LIBCMT:dll_dllmain.obj
 0002:00008fac       $unwind$?fin$0@?0???$?RV<lambda_0ae27a3a962d80f24befdcbee591983d>@@AEAV<lambda_8d0ee55de4b1038c4002e0adecdf1839>@@V<lambda_dc504788e8f1664fe9b84e20bfb512f2>@@@?$__crt_seh_guarded_call@X@@QEAAX$$QEAV<lambda_0ae27a3a962d80f24befdcbee591983d>@@AEAV<lambda_8d0ee55de4b1038c4002e0adecdf1839>@@$$QEAV<lambda_dc504788e8f1664fe9b84e20bfb512f2>@@@Z@4HA 000000018001afac     libucrt:per_thread_data.obj
 0002:00008fac       $unwind$?fin$0@?0???$?RV<lambda_2d41944a1d46af3157314b8a01080d33>@@AEAV<lambda_8f455de75cd7d7f24b4096f044d8b9e6>@@V<lambda_aa500f224e6afead328df44964fe2772>@@@?$__crt_seh_guarded_call@X@@QEAAX$$QEAV<lambda_2d41944a1d46af3157314b8a01080d33>@@AEAV<lambda_8f455de75cd7d7f24b4096f044d8b9e6>@@$$QEAV<lambda_aa500f224e6afead328df44964fe2772>@@@Z@4HA 000000018001afac     libucrt:per_thread_data.obj
 0002:00008fac       $unwind$?fin$0@?0???$?RV<lambda_aa87e3671a710a21b5dc78c0bdf72e11>@@AEAV<lambda_92619d2358a28f41a33ba319515a20b9>@@V<lambda_6992ecaafeb10aed2b74cb1fae11a551>@@@?$__crt_seh_guarded_call@X@@QEAAX$$QEAV<lambda_aa87e3671a710a21b5dc78c0bdf72e11>@@AEAV<lambda_92619d2358a28f41a33ba319515a20b9>@@$$QEAV<lambda_6992ecaafeb10aed2b74cb1fae11a551>@@@Z@4HA 000000018001afac     libucrt:per_thread_data.obj
 0002:00008fac       $unwind$?fin$0@?0???$?RV<lambda_f2e299630e499de9f9a165e60fcd3db5>@@AEAV<lambda_2ae9d31cdba2644fcbeaf08da7c24588>@@V<lambda_40d01ff24d0e7b3814fdbdcee8eab3c7>@@@?$__crt_seh_guarded_call@X@@QEAAX$$QEAV<lambda_f2e299630e499de9f9a165e60fcd3db5>@@AEAV<lambda_2ae9d31cdba2644fcbeaf08da7c24588>@@$$QEAV<lambda_40d01ff24d0e7b3814fdbdcee8eab3c7>@@@Z@4HA 000000018001afac     libucrt:per_thread_data.obj
 0002:00008fac       $unwind$__acrt_update_thread_locale_data$fin$0 000000018001afac     libucrt:locale_refcounting.obj
 0002:00008fac       $unwind$?fin$0@?0???$?RV<lambda_410d79af7f07d98d83a3f525b3859a53>@@AEAV<lambda_3e16ef9562a7dcce91392c22ab16ea36>@@V<lambda_38119f0e861e05405d8a144b9b982f0a>@@@?$__crt_seh_guarded_call@X@@QEAAX$$QEAV<lambda_410d79af7f07d98d83a3f525b3859a53>@@AEAV<lambda_3e16ef9562a7dcce91392c22ab16ea36>@@$$QEAV<lambda_38119f0e861e05405d8a144b9b982f0a>@@@Z@4HA 000000018001afac     libucrt:wsetlocale.obj
 0002:00008fac       $unwind$?fin$0@?0???$?RV<lambda_ad8af0d99a0adf03d037d7dffe354bb5>@@AEAV<lambda_c9ba49e555ba839a7b07aa3fbecb7617>@@V<lambda_2f1ebd5d68526518146ae959c9e734c8>@@@?$__crt_seh_guarded_call@H@@QEAAH$$QEAV<lambda_ad8af0d99a0adf03d037d7dffe354bb5>@@AEAV<lambda_c9ba49e555ba839a7b07aa3fbecb7617>@@$$QEAV<lambda_2f1ebd5d68526518146ae959c9e734c8>@@@Z@4HA 000000018001afac     libucrt:close.obj
 0002:00008fac       $unwind$?fin$0@?0???$?RV<lambda_a37b2b86f63e897a80ea819b0eb08c01>@@AEAV<lambda_38ce7e780aa69e748d6df282ebc68efe>@@V<lambda_99fb1378e971ab6e7edea83e3a7a83a2>@@@?$__crt_seh_guarded_call@H@@QEAAH$$QEAV<lambda_a37b2b86f63e897a80ea819b0eb08c01>@@AEAV<lambda_38ce7e780aa69e748d6df282ebc68efe>@@$$QEAV<lambda_99fb1378e971ab6e7edea83e3a7a83a2>@@@Z@4HA 000000018001afac     libucrt:commit.obj
 0002:00008fac       $unwind$__acrt_initialize_lowio$fin$0 000000018001afac     libucrt:ioinit.obj
 0002:00008fac       $unwind$__acrt_lowio_ensure_fh_exists$fin$0 000000018001afac     libucrt:osfinfo.obj
 0002:00008fac       $unwind$?fin$0@?0???$?RV<lambda_efdfa57d1f175319df784efa44bb7b81>@@AEAV<lambda_5f0a4c1567f8adc6734073e5d1e1b35c>@@V<lambda_2e8a7d3640ea6ccb4c2413664c2db6fd>@@@?$__crt_seh_guarded_call@X@@QEAAX$$QEAV<lambda_efdfa57d1f175319df784efa44bb7b81>@@AEAV<lambda_5f0a4c1567f8adc6734073e5d1e1b35c>@@$$QEAV<lambda_2e8a7d3640ea6ccb4c2413664c2db6fd>@@@Z@4HA 000000018001afac     libucrt:mbctype.obj
 0002:00008fac       $unwind$?fin$0@?0??update_thread_multibyte_data_internal@@YAPEAU__crt_multibyte_data@@QEAU__acrt_ptd@@QEAPEAU1@@Z@4HA 000000018001afac     libucrt:mbctype.obj
 0002:00008fac       $unwind$?fin$0@?0???$?RV<lambda_450d765d439847d4c735a33c368b5fc0>@@AEAV<lambda_44731a7d0e6d81c3e6aa82d741081786>@@V<lambda_601a2a7da3b7a96e9554ac7215c4b07c>@@@?$__crt_seh_guarded_call@P6AXH@Z@@QEAAP6AXH@Z$$QEAV<lambda_450d765d439847d4c735a33c368b5fc0>@@AEAV<lambda_44731a7d0e6d81c3e6aa82d741081786>@@$$QEAV<lambda_601a2a7da3b7a96e9554ac7215c4b07c>@@@Z@4HA 000000018001afac     libucrt:signal.obj
 0002:00008fac       $unwind$raise$fin$0        000000018001afac     libucrt:signal.obj
 0002:00008fac       $unwind$?filt$0@?0???R<lambda_6e4b09c48022b2350581041d5f6b0c4c>@@QEBA@XZ@4HA 000000018001afac     libucrt:exit.obj
 0002:00008fac       $unwind$?fin$0@?0???$?RV<lambda_d80eeec6fff315bfe5c115232f3240e3>@@AEAV<lambda_6e4b09c48022b2350581041d5f6b0c4c>@@V<lambda_2358e3775559c9db80273638284d5e45>@@@?$__crt_seh_guarded_call@X@@QEAAX$$QEAV<lambda_d80eeec6fff315bfe5c115232f3240e3>@@AEAV<lambda_6e4b09c48022b2350581041d5f6b0c4c>@@$$QEAV<lambda_2358e3775559c9db80273638284d5e45>@@@Z@4HA 000000018001afac     libucrt:exit.obj
 0002:00008fac       $unwind$?fin$0@?0???$?RV<lambda_638799b9deba96c50f710eeac98168cd>@@AEAV<lambda_22ebabd17bc4fa466a2aca6d8deb888d>@@V<lambda_a6f7d7db0129f75315ebf26d50c089f1>@@@?$__crt_seh_guarded_call@H@@QEAAH$$QEAV<lambda_638799b9deba96c50f710eeac98168cd>@@AEAV<lambda_22ebabd17bc4fa466a2aca6d8deb888d>@@$$QEAV<lambda_a6f7d7db0129f75315ebf26d50c089f1>@@@Z@4HA 000000018001afac     libucrt:onexit.obj
 0002:00008fac       $unwind$?fin$0@?0???$?RV<lambda_7777bce6b2f8c936911f934f8298dc43>@@AEAV<lambda_f03950bc5685219e0bcd2087efbe011e>@@V<lambda_3883c3dff614d5e0c5f61bb1ac94921c>@@@?$__crt_seh_guarded_call@H@@QEAAH$$QEAV<lambda_7777bce6b2f8c936911f934f8298dc43>@@AEAV<lambda_f03950bc5685219e0bcd2087efbe011e>@@$$QEAV<lambda_3883c3dff614d5e0c5f61bb1ac94921c>@@@Z@4HA 000000018001afac     libucrt:onexit.obj
 0002:00008fac       $unwind$_fcloseall$fin$0   000000018001afac     libucrt:closeall.obj
 0002:00008fac       $unwind$?fin$0@?0???$?RV<lambda_842d9ff0dc9ef11c61343bbaebe7f885>@@AEAV<lambda_c5860995281e5c4ce005b3de8f5874ee>@@V<lambda_d90129c13df834fdcbf8d2b88dafcf2d>@@@?$__crt_seh_guarded_call@X@@QEAAX$$QEAV<lambda_842d9ff0dc9ef11c61343bbaebe7f885>@@AEAV<lambda_c5860995281e5c4ce005b3de8f5874ee>@@$$QEAV<lambda_d90129c13df834fdcbf8d2b88dafcf2d>@@@Z@4HA 000000018001afac     libucrt:fflush.obj
 0002:00008fac       $unwind$?fin$0@?0???$?RV<lambda_886d6c58226a84441f68b9f2b8217b83>@@AEAV<lambda_ab61a845afdef5b7c387490eaf3616ee>@@V<lambda_f7f22ab5edc0698d5f6905b0d3f44752>@@@?$__crt_seh_guarded_call@X@@QEAAX$$QEAV<lambda_886d6c58226a84441f68b9f2b8217b83>@@AEAV<lambda_ab61a845afdef5b7c387490eaf3616ee>@@$$QEAV<lambda_f7f22ab5edc0698d5f6905b0d3f44752>@@@Z@4HA 000000018001afac     libucrt:fflush.obj
 0002:00008fac       $unwind$?fin$0@?0??dllmain_crt_process_attach@@YAHQEAUHINSTANCE__@@QEAX@Z@4HA 000000018001afac     LIBCMT:dll_dllmain.obj
 0002:00008fac       $unwind$?fin$0@?0??dllmain_crt_process_detach@@YAH_N@Z@4HA 000000018001afac     LIBCMT:dll_dllmain.obj
 0002:00008fac       $unwind$?fin$1@?0??dllmain_crt_process_detach@@YAH_N@Z@4HA 000000018001afac     LIBCMT:dll_dllmain.obj
 0002:00008fac       $unwind$_IsNonwritableInCurrentImage$filt$0 000000018001afac     LIBCMT:pesect.obj
 0002:00008fac       $unwind$?filt$0@?0??CxxCallCatchBlock@__FrameHandler3@@SAPEAXPEAU_EXCEPTION_RECORD@@@Z@4HA 000000018001afac     libvcruntime:frame.obj
 0002:00008fac       $unwind$?filt$0@?0??FrameUnwindToState@__FrameHandler3@@SAXPEA_KPEAU_xDISPATCHER_CONTEXT@@PEBU_s_FuncInfo@@H@Z@4HA 000000018001afac     libvcruntime:frame.obj
 0002:00008fac       $unwind$?fin$1@?0??FrameUnwindToState@__FrameHandler3@@SAXPEA_KPEAU_xDISPATCHER_CONTEXT@@PEBU_s_FuncInfo@@H@Z@4HA 000000018001afac     libvcruntime:frame.obj
 0002:00008fb4       $unwind$?dllmain_crt_process_detach@@YAH_N@Z 000000018001afb4     LIBCMT:dll_dllmain.obj
 0002:00009008       $unwind$?dllmain_dispatch@@YAHQEAUHINSTANCE__@@KQEAX@Z 000000018001b008     LIBCMT:dll_dllmain.obj
 0002:00009030       $unwind$_write_internal$fin$0 000000018001b030     libucrt:write.obj
 0002:00009030       $unwind$?fin$0@?0??_fclose_internal@@YAHQEAU_iobuf@@AEAV__crt_cached_ptd_host@@@Z@4HA 000000018001b030     libucrt:fclose.obj
 0002:00009030       $unwind$?filt$0@?0??dllmain_dispatch@@YAHQEAUHINSTANCE__@@KQEAX@Z@4HA 000000018001b030     LIBCMT:dll_dllmain.obj
 0002:00009038       $unwind$?internal_get_ptd_head_slow@@YAPEAU__acrt_ptd@@XZ 000000018001b038     libucrt:per_thread_data.obj
 0002:00009038       $unwind$__acrt_execute_initializers 000000018001b038     libucrt:shared_initialization.obj
 0002:00009038       $unwind$_close_nolock_internal 000000018001b038     libucrt:close.obj
 0002:00009038       $unwind$?value@?$dual_state_global@P6AXPEB_W00I_K@Z@__crt_state_management@@QEAAAEAP6AXPEB_W00I_K@ZAEAV__crt_cached_ptd_host@@@Z 000000018001b038     libucrt:invalid_parameter.obj
 0002:00009038       $unwind$??0_LocaleUpdate@@QEAA@QEAU__crt_locale_pointers@@@Z 000000018001b038     libucrt:argv_wildcards.obj
 0002:00009038       $unwind$?update_locale_slow@__crt_cached_ptd_host@@AEAAXXZ 000000018001b038     libucrt:output.obj
 0002:00009038       $unwind$_DllMainCRTStartup 000000018001b038     LIBCMT:dll_dllmain.obj
 0002:00009038       $unwind$__vcrt_getptd_noexit 000000018001b038     libvcruntime:per_thread_data.obj
 0002:00009038       $unwind$?CatchTryBlock@__FrameHandler3@@SAPEBU_s_TryBlockMapEntry@@PEBU_s_FuncInfo@@H@Z 000000018001b038     libvcruntime:risctrnsctrl.obj
 0002:00009038       $unwind$?FrameUnwindToEmptyState@__FrameHandler3@@SAXPEA_KPEAU_xDISPATCHER_CONTEXT@@PEBU_s_FuncInfo@@@Z 000000018001b038     libvcruntime:risctrnsctrl.obj
 0002:00009048       $unwind$__isa_available_init 000000018001b048     LIBCMT:cpu_disp.obj
 0002:0000905c       $unwind$__security_init_cookie 000000018001b05c     LIBCMT:gs_support.obj
 0002:00009068       $xdatasym                  000000018001b068     LIBCMT:guard_dispatch.obj
 0002:00009070       $xdatasym                  000000018001b070     LIBCMT:guard_xfg_dispatch.obj
 0002:00009074       $unwind$?GetEstablisherFrame@__FrameHandler3@@SAPEA_KPEA_KPEAU_xDISPATCHER_CONTEXT@@PEBU_s_FuncInfo@@0@Z 000000018001b074     libvcruntime:risctrnsctrl.obj
 0002:00009090       $unwind$?UnwindNestedFrames@__FrameHandler3@@SAXPEA_KPEAUEHExceptionRecord@@PEAU_CONTEXT@@0PEAXPEBU_s_FuncInfo@@HHPEBU_s_HandlerType@@PEAU_xDISPATCHER_CONTEXT@@E@Z 000000018001b090     libvcruntime:risctrnsctrl.obj
 0002:000090a4       $unwind$??$copy_and_add_argument_to_buffer@D@@YAHQEBD0_KAEAV?$argument_list@D@?A0x5f5c8891@@@Z 000000018001b0a4     libucrt:argv_wildcards.obj
 0002:000090a4       $unwind$?GetRangeOfTrysToCheck@__FrameHandler3@@SA?AU?$pair@Viterator@TryBlockMap@__FrameHandler3@@V123@@std@@AEAVTryBlockMap@1@HPEAU_xDISPATCHER_CONTEXT@@PEBU_s_FuncInfo@@H@Z 000000018001b0a4     libvcruntime:risctrnsctrl.obj
 0002:000090c0       $unwind$__CxxFrameHandler3 000000018001b0c0     libvcruntime:risctrnsctrl.obj
 0002:000090d4       $unwind$??$_CallSETranslator@V__FrameHandler3@@@@YAHPEAUEHExceptionRecord@@PEA_KPEAU_CONTEXT@@PEAU_xDISPATCHER_CONTEXT@@PEBU_s_FuncInfo@@K1H@Z 000000018001b0d4     libvcruntime:risctrnsctrl.obj
 0002:000090f4       $unwind$?filt$0@?0???$_CallSETranslator@V__FrameHandler3@@@@YAHPEAUEHExceptionRecord@@PEA_KPEAU_CONTEXT@@PEAU_xDISPATCHER_CONTEXT@@PEBU_s_FuncInfo@@K1H@Z@4HA 000000018001b0f4     libvcruntime:risctrnsctrl.obj
 0002:00009100       $unwind$__DestructExceptionObject 000000018001b100     libvcruntime:ehhelpers.obj
 0002:00009120       $unwind$__DestructExceptionObject$filt$0 000000018001b120     libvcruntime:ehhelpers.obj
 0002:00009120       $unwind$?fin$1@?0??CxxCallCatchBlock@__FrameHandler3@@SAPEAXPEAU_EXCEPTION_RECORD@@@Z@4HA 000000018001b120     libvcruntime:frame.obj
 0002:0000912c       $unwind$_CxxThrowException 000000018001b12c     libvcruntime:throw.obj
 0002:0000913c       $unwind$__C_specific_handler 000000018001b13c     libvcruntime:riscchandler.obj
 0002:00009158       $xdatasym$memset_repstos   000000018001b158     libvcruntime:memset.obj
 0002:00009168       $xdatasym$_guard_dispatch_icall 000000018001b168     libucrt:dispatchcfg.obj
 0002:00009168       $xdatasym$__remainder_piby2_fma3_bdl 000000018001b168     libucrt:remainder_piby2_forfma3.obj
 0002:00009168       $xdatasym$__remainder_piby2d2f_forAsm 000000018001b168     libucrt:remainder_piby2f_forasm.obj
 0002:00009168       $xdatasym$sinf             000000018001b168     libucrt:sinf.obj
 0002:00009168       $xdatasym$memcpy           000000018001b168     libvcruntime:memcpy.obj
 0002:00009168       $xdatasym$memset           000000018001b168     libvcruntime:memset.obj
 0002:00009168       $xdatasym$_NLG_Notify      000000018001b168     libvcruntime:notify.obj
 0002:00009168       $xdatasym$__NLG_Dispatch2  000000018001b168     libvcruntime:notify.obj
 0002:00009168       $xdatasym$__NLG_Return2    000000018001b168     libvcruntime:notify.obj
 0002:0000916c       $unwind$?FrameUnwindToState@__FrameHandler3@@SAXPEA_KPEAU_xDISPATCHER_CONTEXT@@PEBU_s_FuncInfo@@H@Z 000000018001b16c     libvcruntime:frame.obj
 0002:000091b8       $unwind$?CxxCallCatchBlock@__FrameHandler3@@SAPEAXPEAU_EXCEPTION_RECORD@@@Z 000000018001b1b8     libvcruntime:frame.obj
 0002:000091f8       $unwind$?IsInExceptionSpec@@YAEPEAUEHExceptionRecord@@PEBU_s_ESTypeList@@@Z 000000018001b1f8     libvcruntime:frame.obj
 0002:00009210       $unwind$__acrt_DownlevelLocaleNameToLCID 000000018001b210     libucrt:lcidtoname_downlevel.obj
 0002:00009210       $unwind$??R<lambda_22ebabd17bc4fa466a2aca6d8deb888d>@@QEBA@XZ 000000018001b210     libucrt:onexit.obj
 0002:00009210       $unwind$??R<lambda_f03950bc5685219e0bcd2087efbe011e>@@QEBA@XZ 000000018001b210     libucrt:onexit.obj
 0002:00009210       $unwind$??$TypeMatchHelper@V__FrameHandler3@@@@YAHPEBU_s_HandlerType@@PEBU_s_CatchableType@@PEBU_s_ThrowInfo@@@Z 000000018001b210     libvcruntime:frame.obj
 0002:00009228       $unwind$??$BuildCatchObjectHelperInternal@V__FrameHandler3@@@@YAHPEAUEHExceptionRecord@@PEAXPEBU_s_HandlerType@@PEBU_s_CatchableType@@@Z 000000018001b228     libvcruntime:frame.obj
 0002:00009268       $unwind$??$BuildCatchObjectInternal@V__FrameHandler3@@@@YAXPEAUEHExceptionRecord@@PEAXPEBU_s_HandlerType@@PEBU_s_CatchableType@@@Z 000000018001b268     libvcruntime:frame.obj
 0002:00009294       $unwind$??$__InternalCxxFrameHandler@V__FrameHandler3@@@@YA?AW4_EXCEPTION_DISPOSITION@@PEAUEHExceptionRecord@@PEA_KPEAU_CONTEXT@@PEAU_xDISPATCHER_CONTEXT@@PEBU_s_FuncInfo@@H1E@Z 000000018001b294     libvcruntime:frame.obj
 0002:000092ac       $unwind$??$FindHandler@V__FrameHandler3@@@@YAXPEAUEHExceptionRecord@@PEA_KPEAU_CONTEXT@@PEAU_xDISPATCHER_CONTEXT@@PEBU_s_FuncInfo@@EH1@Z 000000018001b2ac     libvcruntime:frame.obj
 0002:000092cc       $unwind$??$CatchIt@V__FrameHandler3@@@@YAXPEAUEHExceptionRecord@@PEA_KPEAU_CONTEXT@@PEAU_xDISPATCHER_CONTEXT@@PEBU_s_FuncInfo@@PEBU_s_HandlerType@@PEBU_s_CatchableType@@PEBU_s_TryBlockMapEntry@@H1EE@Z 000000018001b2cc     libvcruntime:frame.obj
 0002:000092e4       $unwind$??$FindHandlerForForeignException@V__FrameHandler3@@@@YAXPEAUEHExceptionRecord@@PEA_KPEAU_CONTEXT@@PEAU_xDISPATCHER_CONTEXT@@PEBU_s_FuncInfo@@HH1@Z 000000018001b2e4     libvcruntime:frame.obj
 0002:00009300       $xdatasym$memcpy_repmovs   000000018001b300     libvcruntime:memcpy.obj
 0002:0000930c       $unwind$_callnewh          000000018001b30c     libucrt:new_handler.obj
 0002:00009318       $unwind$_query_new_handler 000000018001b318     libucrt:new_handler.obj
 0002:00009338       $unwind$_query_new_handler$fin$0 000000018001b338     libucrt:new_handler.obj
 0002:00009340       $unwind$_set_new_handler   000000018001b340     libucrt:new_handler.obj
 0002:00009364       $unwind$_set_new_handler$fin$0 000000018001b364     libucrt:new_handler.obj
 0002:0000936c       $unwind$?try_cor_exit_process@@YAXI@Z 000000018001b36c     libucrt:exit.obj
 0002:00009380       $ip2state$?try_cor_exit_process@@YAXI@Z 000000018001b380     libucrt:exit.obj
 0002:00009388       $unwind$?common_exit@@YAXHW4_crt_exit_cleanup_mode@@W4_crt_exit_return_mode@@@Z 000000018001b388     libucrt:exit.obj
 0002:0000939c       $stateUnwindMap$__dcrt_uninitialize_environments_nolock 000000018001b39c     libucrt:environment_initialization.obj
 0002:0000939c       $stateUnwindMap$__acrt_freeptd 000000018001b39c     libucrt:per_thread_data.obj
 0002:0000939c       $stateUnwindMap$__acrt_getptd_head 000000018001b39c     libucrt:per_thread_data.obj
 0002:0000939c       $stateUnwindMap$__acrt_getptd_noexit 000000018001b39c     libucrt:per_thread_data.obj
 0002:0000939c       $stateUnwindMap$__acrt_getptd_noexit_explicit 000000018001b39c     libucrt:per_thread_data.obj
 0002:0000939c       $stateUnwindMap$?common_exit@@YAXHW4_crt_exit_cleanup_mode@@W4_crt_exit_return_mode@@@Z 000000018001b39c     libucrt:exit.obj
 0002:0000939c       $stateUnwindMap$_execute_onexit_table 000000018001b39c     libucrt:onexit.obj
 0002:000093a8       $ip2state$?common_exit@@YAXHW4_crt_exit_cleanup_mode@@W4_crt_exit_return_mode@@@Z 000000018001b3a8     libucrt:exit.obj
 0002:000093b0       $unwind$??R<lambda_6e4b09c48022b2350581041d5f6b0c4c>@@QEBA@XZ 000000018001b3b0     libucrt:exit.obj
 0002:000093d0       $unwind$??$?RV<lambda_d80eeec6fff315bfe5c115232f3240e3>@@AEAV<lambda_6e4b09c48022b2350581041d5f6b0c4c>@@V<lambda_2358e3775559c9db80273638284d5e45>@@@?$__crt_seh_guarded_call@X@@QEAAX$$QEAV<lambda_d80eeec6fff315bfe5c115232f3240e3>@@AEAV<lambda_6e4b09c48022b2350581041d5f6b0c4c>@@$$QEAV<lambda_2358e3775559c9db80273638284d5e45>@@@Z 000000018001b3d0     libucrt:exit.obj
 0002:000093f4       $unwind$_configure_narrow_argv 000000018001b3f4     libucrt:argv_parsing.obj
 0002:00009408       $unwind$??$parse_command_line@D@@YAXPEADPEAPEAD0PEA_K2@Z 000000018001b408     libucrt:argv_parsing.obj
 0002:00009424       $unwind$__dcrt_uninitialize_environments_nolock 000000018001b424     libucrt:environment_initialization.obj
 0002:00009424       $unwind$__acrt_getptd_head 000000018001b424     libucrt:per_thread_data.obj
 0002:00009434       $unwind$??$free_environment@D@@YAXQEAPEAD@Z 000000018001b434     libucrt:environment_initialization.obj
 0002:00009434       $unwind$??$free_environment@_W@@YAXQEAPEA_W@Z 000000018001b434     libucrt:environment_initialization.obj
 0002:00009434       $unwind$_initterm          000000018001b434     libucrt:initterm.obj
 0002:00009440       $unwind$??$create_environment@D@@YAQEAPEADQEAD@Z 000000018001b440     libucrt:environment_initialization.obj
 0002:00009440       $unwind$_mbtowc_internal   000000018001b440     libucrt:mbtowc.obj
 0002:00009440       $unwind$??$__acrt_convert_wcs_mbs_cp@D_WV<lambda_7c9dea7b4ca7285d2cdb541a38da6275>@@U__crt_win32_buffer_internal_dynamic_resizing@@@@YAHQEBDAEAV?$__crt_win32_buffer@_WU__crt_win32_buffer_internal_dynamic_resizing@@@@AEBV<lambda_7c9dea7b4ca7285d2cdb541a38da6275>@@I@Z 000000018001b440     libucrt:argv_wildcards.obj
 0002:00009458       $unwind$_register_onexit_function 000000018001b458     libucrt:onexit.obj
 0002:00009460       $unwind$_execute_onexit_table 000000018001b460     libucrt:onexit.obj
 0002:00009470       $ip2state$_execute_onexit_table 000000018001b470     libucrt:onexit.obj
 0002:00009478       $unwind$??$?RV<lambda_638799b9deba96c50f710eeac98168cd>@@AEAV<lambda_22ebabd17bc4fa466a2aca6d8deb888d>@@V<lambda_a6f7d7db0129f75315ebf26d50c089f1>@@@?$__crt_seh_guarded_call@H@@QEAAH$$QEAV<lambda_638799b9deba96c50f710eeac98168cd>@@AEAV<lambda_22ebabd17bc4fa466a2aca6d8deb888d>@@$$QEAV<lambda_a6f7d7db0129f75315ebf26d50c089f1>@@@Z 000000018001b478     libucrt:onexit.obj
 0002:0000949c       $unwind$??$?RV<lambda_7777bce6b2f8c936911f934f8298dc43>@@AEAV<lambda_f03950bc5685219e0bcd2087efbe011e>@@V<lambda_3883c3dff614d5e0c5f61bb1ac94921c>@@@?$__crt_seh_guarded_call@H@@QEAAH$$QEAV<lambda_7777bce6b2f8c936911f934f8298dc43>@@AEAV<lambda_f03950bc5685219e0bcd2087efbe011e>@@$$QEAV<lambda_3883c3dff614d5e0c5f61bb1ac94921c>@@@Z 000000018001b49c     libucrt:onexit.obj
 0002:000094c0       $unwind$terminate          000000018001b4c0     libucrt:terminate.obj
 0002:000094e0       $unwind$?get_raw_ptd@__crt_cached_ptd_host@@QEAAPEAU__acrt_ptd@@XZ 000000018001b4e0     libucrt:output.obj
 0002:000094e8       $chain$0$?get_raw_ptd@__crt_cached_ptd_host@@QEAAPEAU__acrt_ptd@@XZ 000000018001b4e8     libucrt:output.obj
 0002:000094fc       $chain$1$?get_raw_ptd@__crt_cached_ptd_host@@QEAAPEAU__acrt_ptd@@XZ 000000018001b4fc     libucrt:output.obj
 0002:00009510       $xdatasym                  000000018001b510     libucrt:strncmp.obj
 0002:00009518       $unwind$_malloc_base       000000018001b518     libucrt:malloc_base.obj
 0002:00009520       $unwind$__acrt_getptd_noexit 000000018001b520     libucrt:per_thread_data.obj
 0002:00009520       $unwind$__acrt_getptd_noexit_explicit 000000018001b520     libucrt:per_thread_data.obj
 0002:00009534       $unwind$__acrt_freeptd     000000018001b534     libucrt:per_thread_data.obj
 0002:00009544       $unwind$?destroy_fls@@YAXPEAX@Z 000000018001b544     libucrt:per_thread_data.obj
 0002:00009544       $unwind$__acrt_locale_free_numeric 000000018001b544     libucrt:initnum.obj
 0002:00009544       $unwind$__acrt_locale_free_lc_time_if_unreferenced 000000018001b544     libucrt:locale_refcounting.obj
 0002:0000954c       $unwind$?construct_ptd_array@@YAXQEAU__acrt_ptd@@@Z 000000018001b54c     libucrt:per_thread_data.obj
 0002:00009554       $unwind$?destroy_ptd_array@@YAXQEAU__acrt_ptd@@@Z 000000018001b554     libucrt:per_thread_data.obj
 0002:0000955c       $unwind$??$?RV<lambda_0ae27a3a962d80f24befdcbee591983d>@@AEAV<lambda_8d0ee55de4b1038c4002e0adecdf1839>@@V<lambda_dc504788e8f1664fe9b84e20bfb512f2>@@@?$__crt_seh_guarded_call@X@@QEAAX$$QEAV<lambda_0ae27a3a962d80f24befdcbee591983d>@@AEAV<lambda_8d0ee55de4b1038c4002e0adecdf1839>@@$$QEAV<lambda_dc504788e8f1664fe9b84e20bfb512f2>@@@Z 000000018001b55c     libucrt:per_thread_data.obj
 0002:00009580       $unwind$??$?RV<lambda_aa87e3671a710a21b5dc78c0bdf72e11>@@AEAV<lambda_92619d2358a28f41a33ba319515a20b9>@@V<lambda_6992ecaafeb10aed2b74cb1fae11a551>@@@?$__crt_seh_guarded_call@X@@QEAAX$$QEAV<lambda_aa87e3671a710a21b5dc78c0bdf72e11>@@AEAV<lambda_92619d2358a28f41a33ba319515a20b9>@@$$QEAV<lambda_6992ecaafeb10aed2b74cb1fae11a551>@@@Z 000000018001b580     libucrt:per_thread_data.obj
 0002:000095a4       $unwind$??$?RV<lambda_f2e299630e499de9f9a165e60fcd3db5>@@AEAV<lambda_2ae9d31cdba2644fcbeaf08da7c24588>@@V<lambda_40d01ff24d0e7b3814fdbdcee8eab3c7>@@@?$__crt_seh_guarded_call@X@@QEAAX$$QEAV<lambda_f2e299630e499de9f9a165e60fcd3db5>@@AEAV<lambda_2ae9d31cdba2644fcbeaf08da7c24588>@@$$QEAV<lambda_40d01ff24d0e7b3814fdbdcee8eab3c7>@@@Z 000000018001b5a4     libucrt:per_thread_data.obj
 0002:000095c8       $unwind$??$?RV<lambda_2d41944a1d46af3157314b8a01080d33>@@AEAV<lambda_8f455de75cd7d7f24b4096f044d8b9e6>@@V<lambda_aa500f224e6afead328df44964fe2772>@@@?$__crt_seh_guarded_call@X@@QEAAX$$QEAV<lambda_2d41944a1d46af3157314b8a01080d33>@@AEAV<lambda_8f455de75cd7d7f24b4096f044d8b9e6>@@$$QEAV<lambda_aa500f224e6afead328df44964fe2772>@@@Z 000000018001b5c8     libucrt:per_thread_data.obj
 0002:000095ec       $unwind$__acrt_call_reportfault 000000018001b5ec     libucrt:invalid_parameter.obj
 0002:0000960c       $unwind$??$common_lseek_nolock@_J@@YA_JH_JHAEAV__crt_cached_ptd_host@@@Z 000000018001b60c     libucrt:lseek.obj
 0002:0000960c       $unwind$_invalid_parameter_internal 000000018001b60c     libucrt:invalid_parameter.obj
 0002:00009620       $unwind$?get_raw_ptd_noexit@__crt_cached_ptd_host@@QEAAPEAU__acrt_ptd@@XZ 000000018001b620     libucrt:invalid_parameter.obj
 0002:00009630       $unwind$_invalid_parameter 000000018001b630     libucrt:invalid_parameter.obj
 0002:0000963c       $unwind$__acrt_errno_from_os_error 000000018001b63c     libucrt:errno.obj
 0002:0000964c       $unwind$_calloc_base       000000018001b64c     libucrt:calloc_base.obj
 0002:00009654       $unwind$_free_base         000000018001b654     libucrt:free_base.obj
 0002:0000965c       $unwind$??$common_expand_argv_wildcards@D@@YAHQEAPEADQEAPEAPEAD@Z 000000018001b65c     libucrt:argv_wildcards.obj
 0002:00009674       $unwind$__dcrt_get_narrow_environment_from_os 000000018001b674     libucrt:get_environment_from_os.obj
 0002:00009674       $unwind$??$__acrt_convert_wcs_mbs_cp@_WDV<lambda_d8593a27d1aa8c02be35c86a17d324c4>@@U__crt_win32_buffer_internal_dynamic_resizing@@@@YAHQEB_WAEAV?$__crt_win32_buffer@DU__crt_win32_buffer_internal_dynamic_resizing@@@@AEBV<lambda_d8593a27d1aa8c02be35c86a17d324c4>@@I@Z 000000018001b674     libucrt:argv_wildcards.obj
 0002:0000968c       $unwind$??$expand_argument_wildcards@D@@YAHQEAD0AEAV?$argument_list@D@?A0x5f5c8891@@@Z 000000018001b68c     libucrt:argv_wildcards.obj
 0002:000096ac       $unwind$__acrt_GetModuleFileNameA 000000018001b6ac     libucrt:getmodulefilenamea.obj
 0002:000096c8       $unwind$__dcrt_write_console 000000018001b6c8     libucrt:initcon.obj
 0002:000096c8       $unwind$??$__acrt_convert_wcs_mbs_cp@_WDV<lambda_f788ae46380686e8b737efdd8c720d07>@@U__crt_win32_buffer_no_resizing@@@@YAHQEB_WAEAV?$__crt_win32_buffer@DU__crt_win32_buffer_no_resizing@@@@AEBV<lambda_f788ae46380686e8b737efdd8c720d07>@@I@Z 000000018001b6c8     libucrt:getmodulefilenamea.obj
 0002:000096dc       $unwind$_setmbcp_nolock    000000018001b6dc     libucrt:mbctype.obj
 0002:000096fc       $unwind$__dcrt_lowio_ensure_console_output_initialized 000000018001b6fc     libucrt:initcon.obj
 0002:000096fc       $unwind$?__mbrtowc_utf8@__crt_mbstring@@YA_KPEA_WPEBD_KPEAU_Mbstatet@@AEAV__crt_cached_ptd_host@@@Z 000000018001b6fc     libucrt:mbrtowc.obj
 0002:000096fc       $unwind$?getSystemCP@@YAHH@Z 000000018001b6fc     libucrt:mbctype.obj
 0002:00009704       $unwind$?update_thread_multibyte_data_internal@@YAPEAU__crt_multibyte_data@@QEAU__acrt_ptd@@QEAPEAU1@@Z 000000018001b704     libucrt:mbctype.obj
 0002:0000972c       $unwind$?setmbcp_internal@@YAHH_NQEAU__acrt_ptd@@QEAPEAU__crt_multibyte_data@@@Z 000000018001b72c     libucrt:mbctype.obj
 0002:00009744       $unwind$?setSBUpLow@@YAXPEAU__crt_multibyte_data@@@Z 000000018001b744     libucrt:mbctype.obj
 0002:00009760       $unwind$??$?RV<lambda_efdfa57d1f175319df784efa44bb7b81>@@AEAV<lambda_5f0a4c1567f8adc6734073e5d1e1b35c>@@V<lambda_2e8a7d3640ea6ccb4c2413664c2db6fd>@@@?$__crt_seh_guarded_call@X@@QEAAX$$QEAV<lambda_efdfa57d1f175319df784efa44bb7b81>@@AEAV<lambda_5f0a4c1567f8adc6734073e5d1e1b35c>@@$$QEAV<lambda_2e8a7d3640ea6ccb4c2413664c2db6fd>@@@Z 000000018001b760     libucrt:mbctype.obj
 0002:00009784       $unwind$?x_ismbbtype_l@@YAHPEAU__crt_locale_pointers@@IHH@Z 000000018001b784     libucrt:ismbbyte.obj
 0002:00009794       $unwind$__acrt_WideCharToMultiByte 000000018001b794     libucrt:widechartomultibyte.obj
 0002:000097a0       $unwind$_recalloc_base     000000018001b7a0     libucrt:recalloc.obj
 0002:000097b4       $unwind$__acrt_LCMapStringEx 000000018001b7b4     libucrt:winapi_thunks.obj
 0002:000097c8       $unwind$?try_get_function_slow@@YAPEAXW4function_id@?A0x391cf84c@@QEBDQEBW4module_id@2@2@Z 000000018001b7c8     libucrt:winapi_thunks.obj
 0002:000097e4       $unwind$__acrt_initialize_heap 000000018001b7e4     libucrt:heap_handle.obj
 0002:000097ec       $unwind$__acrt_initialize_lowio 000000018001b7ec     libucrt:ioinit.obj
 0002:0000980c       $unwind$?initialize_inherited_file_handles_nolock@@YAXXZ 000000018001b80c     libucrt:ioinit.obj
 0002:00009828       $unwind$?initialize_stdio_handles_nolock@@YAXXZ 000000018001b828     libucrt:ioinit.obj
 0002:00009828       $unwind$__acrt_initialize_stdio 000000018001b828     libucrt:_file.obj
 0002:00009828       $unwind$__GSHandlerCheck_EH 000000018001b828     LIBCMT:gshandlereh.obj
 0002:00009840       $unwind$__acrt_uninitialize_locale 000000018001b840     libucrt:wsetlocale.obj
 0002:00009840       $unwind$__acrt_get_sigabrt_handler 000000018001b840     libucrt:signal.obj
 0002:00009848       $unwind$raise              000000018001b848     libucrt:signal.obj
 0002:00009888       $unwind$??$?RV<lambda_450d765d439847d4c735a33c368b5fc0>@@AEAV<lambda_44731a7d0e6d81c3e6aa82d741081786>@@V<lambda_601a2a7da3b7a96e9554ac7215c4b07c>@@@?$__crt_seh_guarded_call@P6AXH@Z@@QEAAP6AXH@Z$$QEAV<lambda_450d765d439847d4c735a33c368b5fc0>@@AEAV<lambda_44731a7d0e6d81c3e6aa82d741081786>@@$$QEAV<lambda_601a2a7da3b7a96e9554ac7215c4b07c>@@@Z 000000018001b888     libucrt:signal.obj
 0002:000098ac       $unwind$fclose             000000018001b8ac     libucrt:fclose.obj
 0002:000098ac       $unwind$_fflush_nolock     000000018001b8ac     libucrt:fflush.obj
 0002:000098bc       $unwind$?common_flush_all@@YAH_N@Z 000000018001b8bc     libucrt:fflush.obj
 0002:000098c4       $unwind$??$?RV<lambda_842d9ff0dc9ef11c61343bbaebe7f885>@@AEAV<lambda_c5860995281e5c4ce005b3de8f5874ee>@@V<lambda_d90129c13df834fdcbf8d2b88dafcf2d>@@@?$__crt_seh_guarded_call@X@@QEAAX$$QEAV<lambda_842d9ff0dc9ef11c61343bbaebe7f885>@@AEAV<lambda_c5860995281e5c4ce005b3de8f5874ee>@@$$QEAV<lambda_d90129c13df834fdcbf8d2b88dafcf2d>@@@Z 000000018001b8c4     libucrt:fflush.obj
 0002:000098e8       $unwind$??$?RV<lambda_886d6c58226a84441f68b9f2b8217b83>@@AEAV<lambda_ab61a845afdef5b7c387490eaf3616ee>@@V<lambda_f7f22ab5edc0698d5f6905b0d3f44752>@@@?$__crt_seh_guarded_call@X@@QEAAX$$QEAV<lambda_886d6c58226a84441f68b9f2b8217b83>@@AEAV<lambda_ab61a845afdef5b7c387490eaf3616ee>@@$$QEAV<lambda_f7f22ab5edc0698d5f6905b0d3f44752>@@@Z 000000018001b8e8     libucrt:fflush.obj
 0002:00009910       $unwind$?__mbrtoc32_utf8@__crt_mbstring@@YA_KPEA_UPEBD_KPEAU_Mbstatet@@AEAV__crt_cached_ptd_host@@@Z 000000018001b910     libucrt:mbrtoc32.obj
 0002:0000992c       $unwind$?__mbsrtowcs_utf8@__crt_mbstring@@YA_KPEA_WPEAPEBD_KPEAU_Mbstatet@@AEAV__crt_cached_ptd_host@@@Z 000000018001b92c     libucrt:mbrtowc.obj
 0002:00009948       $unwind$??$?RV<lambda_410d79af7f07d98d83a3f525b3859a53>@@AEAV<lambda_3e16ef9562a7dcce91392c22ab16ea36>@@V<lambda_38119f0e861e05405d8a144b9b982f0a>@@@?$__crt_seh_guarded_call@X@@QEAAX$$QEAV<lambda_410d79af7f07d98d83a3f525b3859a53>@@AEAV<lambda_3e16ef9562a7dcce91392c22ab16ea36>@@$$QEAV<lambda_38119f0e861e05405d8a144b9b982f0a>@@@Z 000000018001b948     libucrt:wsetlocale.obj
 0002:00009970       $unwind$_set_new_mode      000000018001b970     libucrt:new_mode.obj
 0002:00009978       $unwind$__acrt_update_thread_locale_data 000000018001b978     libucrt:locale_refcounting.obj
 0002:0000999c       $unwind$qsort              000000018001b99c     libucrt:qsort.obj
 0002:000099b4       $chain$3$qsort             000000018001b9b4     libucrt:qsort.obj
 0002:000099d4       $chain$4$qsort             000000018001b9d4     libucrt:qsort.obj
 0002:000099e4       $unwind$strpbrk            000000018001b9e4     libucrt:strpbrk.obj
 0002:000099f4       $unwind$fallbackMethod     000000018001b9f4     libucrt:strpbrk.obj
 0002:00009a04       $unwind$_mbsdec_l          000000018001ba04     libucrt:mbsdec.obj
 0002:00009a10       $unwind$__acrt_GetStringTypeA 000000018001ba10     libucrt:getstringtypea.obj
 0002:00009a38       $unwind$__acrt_LCMapStringA 000000018001ba38     libucrt:lcmapstringa.obj
 0002:00009a48       $unwind$?__acrt_LCMapStringA_stat@@YAHPEAU__crt_locale_pointers@@PEB_WKPEBDHPEADHHH@Z 000000018001ba48     libucrt:lcmapstringa.obj
 0002:00009a70       $unwind$_msize_base        000000018001ba70     libucrt:msize.obj
 0002:00009a78       $unwind$_realloc_base      000000018001ba78     libucrt:realloc_base.obj
 0002:00009a84       $unwind$_free_osfhnd       000000018001ba84     libucrt:osfinfo.obj
 0002:00009a98       $unwind$__acrt_lowio_destroy_handle_array 000000018001ba98     libucrt:osfinfo.obj
 0002:00009aa8       $unwind$__acrt_lowio_ensure_fh_exists 000000018001baa8     libucrt:osfinfo.obj
 0002:00009ad4       $unwind$_commit            000000018001bad4     libucrt:commit.obj
 0002:00009adc       $unwind$??$?RV<lambda_a37b2b86f63e897a80ea819b0eb08c01>@@AEAV<lambda_38ce7e780aa69e748d6df282ebc68efe>@@V<lambda_99fb1378e971ab6e7edea83e3a7a83a2>@@@?$__crt_seh_guarded_call@H@@QEAAH$$QEAV<lambda_a37b2b86f63e897a80ea819b0eb08c01>@@AEAV<lambda_38ce7e780aa69e748d6df282ebc68efe>@@$$QEAV<lambda_99fb1378e971ab6e7edea83e3a7a83a2>@@@Z 000000018001badc     libucrt:commit.obj
 0002:00009b00       $unwind$_write_nolock      000000018001bb00     libucrt:write.obj
 0002:00009b18       $unwind$_write_internal    000000018001bb18     libucrt:write.obj
 0002:00009b44       $unwind$?write_double_translated_ansi_nolock@@YA?AUwrite_result@?A0x17268360@@HQEBDIAEAV__crt_cached_ptd_host@@@Z 000000018001bb44     libucrt:write.obj
 0002:00009b70       $ip2state$?write_double_translated_ansi_nolock@@YA?AUwrite_result@?A0x17268360@@HQEBDIAEAV__crt_cached_ptd_host@@@Z 000000018001bb70     libucrt:write.obj
 0002:00009b78       $unwind$?write_text_ansi_nolock@@YA?AUwrite_result@?A0x17268360@@HQEBDI@Z 000000018001bb78     libucrt:write.obj
 0002:00009b78       $unwind$?write_text_utf16le_nolock@@YA?AUwrite_result@?A0x17268360@@HQEBDI@Z 000000018001bb78     libucrt:write.obj
 0002:00009b98       $unwind$?write_text_utf8_nolock@@YA?AUwrite_result@?A0x17268360@@HQEBDI@Z 000000018001bb98     libucrt:write.obj
 0002:00009bbc       $unwind$_fcloseall         000000018001bbbc     libucrt:closeall.obj
 0002:00009be0       $unwind$__acrt_locale_free_monetary 000000018001bbe0     libucrt:initmon.obj
 0002:00009be8       $unwind$__acrt_locale_free_time 000000018001bbe8     libucrt:inittime.obj
 0002:00009bf8       $unwind$_guard_check_icall 000000018001bbf8     libucrt:checkcfg.obj
 0002:00009c04       $unwind$_putwch_nolock     000000018001bc04     libucrt:putwch.obj
 0002:00009c0c       $unwind$?_fclose_nolock_internal@@YAHQEAU_iobuf@@AEAV__crt_cached_ptd_host@@@Z 000000018001bc0c     libucrt:fclose.obj
 0002:00009c1c       $unwind$?_fclose_internal@@YAHQEAU_iobuf@@AEAV__crt_cached_ptd_host@@@Z 000000018001bc1c     libucrt:fclose.obj
 0002:00009c40       $unwind$_close_internal    000000018001bc40     libucrt:close.obj
 0002:00009c48       $unwind$??$?RV<lambda_ad8af0d99a0adf03d037d7dffe354bb5>@@AEAV<lambda_c9ba49e555ba839a7b07aa3fbecb7617>@@V<lambda_2f1ebd5d68526518146ae959c9e734c8>@@@?$__crt_seh_guarded_call@H@@QEAAH$$QEAV<lambda_ad8af0d99a0adf03d037d7dffe354bb5>@@AEAV<lambda_c9ba49e555ba839a7b07aa3fbecb7617>@@$$QEAV<lambda_2f1ebd5d68526518146ae959c9e734c8>@@@Z 000000018001bc48     libucrt:close.obj
 0002:00009c6c       $unwind$_exception_enabled 000000018001bc6c     libucrt:libm_error.obj
 0002:00009c80       $chain$0$_exception_enabled 000000018001bc80     libucrt:libm_error.obj
 0002:00009c94       $chain$1$_exception_enabled 000000018001bc94     libucrt:libm_error.obj
 0002:00009ca4       $unwind$_handle_errorf     000000018001bca4     libucrt:libm_error.obj
 0002:00009cc0       $unwind$__acrt_initialize_fma3 000000018001bcc0     libucrt:fma3_available.obj
 0002:00009cc8       $unwind$_ctrlfp            000000018001bcc8     libucrt:fpctrl.obj
 0002:00009ce8       $unwind$_raise_exc_ex      000000018001bce8     libucrt:fpexcept.obj
 0002:00009cfc       $unwind$_IsNonwritableInCurrentImage 000000018001bcfc     LIBCMT:pesect.obj
 0002:00009d20       $xdatasym                  000000018001bd20     LIBCMT:chkstk.obj
 0002:00009d28       $xdatasym$cosf_sse2        000000018001bd28     libucrt:cosf.obj
 0002:00009d28       $xdatasym$sinf_sse2        000000018001bd28     libucrt:sinf.obj
 0002:00009d30       $xdatasym$cosf             000000018001bd30     libucrt:cosf.obj
 0002:00009d38       $unwind$_cosf_special      000000018001bd38     libucrt:sincos_special.obj
 0002:00009d38       $unwind$_sinf_special      000000018001bd38     libucrt:sincos_special.obj
 0002:00009d38       $unwind$sqrtf              000000018001bd38     libucrt:sqrtf.obj
 0002:00009d40       $xdatasym$__remainder_piby2d2f_forC 000000018001bd40     libucrt:remainder_piby2f_forc.obj
 0002:00009f30       .edata                     000000018001bf30     NekosifyD3D.exp
 0002:00009f58       rgpv                       000000018001bf58     NekosifyD3D.exp
 0002:00009f5c       rgszName                   000000018001bf5c     NekosifyD3D.exp
 0002:00009f60       rgwOrd                     000000018001bf60     NekosifyD3D.exp
 0002:00009f62       szName                     000000018001bf62     NekosifyD3D.exp
 0002:00009f72       $N00001                    000000018001bf72     NekosifyD3D.exp
 0002:0000a4e6       .idata$6                   000000018001c4e6     kernel32:KERNEL32.dll
 0002:0000a548       .idata$6                   000000018001c548     user32:USER32.dll
 0002:0000a566       .idata$6                   000000018001c566     d3d9:d3d9.dll
 0002:0000a582       .idata$6                   000000018001c582     d3dx9:d3dx9_43.dll
 0002:0000a59e       .idata$6                   000000018001c59e     winmm:WINMM.dll
 0003:000000b0       ?__vcrt_flsindex@@3KA      000000018001d0b0     libvcruntime:per_thread_data.obj
 0003:000000d0       ?__acrt_flsindex@@3KA      000000018001d0d0     libucrt:per_thread_data.obj
 0003:000000d4       ?errno_no_memory@@3HA      000000018001d0d4     libucrt:errno.obj
 0003:000000d8       ?doserrno_no_memory@@3KA   000000018001d0d8     libucrt:errno.obj
 0003:00000310       _mbctypes                  000000018001d310     libucrt:mbctype.obj
 0003:00000420       _mbcasemaps                000000018001d420     libucrt:mbctype.obj
 0003:00000520       ?__rgctypeflag@@3PADA      000000018001d520     libucrt:mbctype.obj
 0003:00000530       ?__rgcode_page_info@@3PAUcode_page_info@@A 000000018001d530     libucrt:mbctype.obj
 0003:00000a40       ?__dcrt_lowio_console_output_handle@@3PEAXEA 000000018001da40     libucrt:initcon.obj
 0003:00000a50       ?dazSupported@?1??_ctrlfp@@9@9 000000018001da50     libucrt:fpctrl.obj
 0003:00000db0       ?is_initialized_as_dll@@3_NA 000000018001ddb0     LIBCMT:utility.obj
 0003:00000db1       ?module_local_atexit_table_initialized@@3_NA 000000018001ddb1     LIBCMT:utility.obj
 0003:00000db8       ?module_local_atexit_table@@3U_onexit_table_t@@A 000000018001ddb8     LIBCMT:utility.obj
 0003:00000dd0       ?module_local_at_quick_exit_table@@3U_onexit_table_t@@A 000000018001ddd0     LIBCMT:utility.obj
 0003:00000de8       ?__proc_attached@@3HA      000000018001dde8     LIBCMT:dll_dllmain.obj
 0003:00000e30       ?__vcrt_startup_thread_ptd@@3U__vcrt_ptd@@A 000000018001de30     libvcruntime:per_thread_data.obj
 0003:00000eb0       __vcrt_lock_table          000000018001deb0     libvcruntime:locks.obj
 0003:00000ed8       __vcrt_locks_initialized   000000018001ded8     libvcruntime:locks.obj
 0003:00000ee8       ?__acrt_new_handler@@3V?$dual_state_global@P6AH_K@Z@__crt_state_management@@A 000000018001dee8     libucrt:new_handler.obj
 0003:00000ef0       ?c_termination_complete@@3JA 000000018001def0     libucrt:exit.obj
 0003:00000ef8       ?thread_local_exit_callback_func@@3P6AXPEAXK0@ZEA 000000018001def8     libucrt:exit.obj
 0003:00000f00       ?c_exit_complete@?1???R<lambda_6e4b09c48022b2350581041d5f6b0c4c>@@QEBA@XZ@4_NA 000000018001df00     libucrt:exit.obj
 0003:00000f10       ?program_name@?1???$common_configure_argv@D@@YAHW4_crt_argv_mode@@@Z@4PADA 000000018001df10     libucrt:argv_parsing.obj
 0003:00001070       ?__acrt_lock_table@@3PAU_RTL_CRITICAL_SECTION@@A 000000018001e070     libucrt:locks.obj
 0003:000012c8       ?__acrt_locks_initialized@@3IA 000000018001e2c8     libucrt:locks.obj
 0003:000012d0       ?__acrt_invalid_parameter_handler@@3V?$dual_state_global@P6AXPEB_W00I_K@Z@__crt_state_management@@A 000000018001e2d0     libucrt:invalid_parameter.obj
 0003:000012f0       ?fSystemSet@@3HA           000000018001e2f0     libucrt:mbctype.obj
 0003:000012f4       ?initialized@?1??__acrt_initialize_multibyte@@9@4_NA 000000018001e2f4     libucrt:mbctype.obj
 0003:00001330       ?module_handles@@3PAPEAUHINSTANCE__@@A 000000018001e330     libucrt:winapi_thunks.obj
 0003:000017f8       ?ctrlc_action@@3V?$dual_state_global@P6AXH@Z@__crt_state_management@@A 000000018001e7f8     libucrt:signal.obj
 0003:00001800       ?ctrlbreak_action@@3V?$dual_state_global@P6AXH@Z@__crt_state_management@@A 000000018001e800     libucrt:signal.obj
 0003:00001808       ?abort_action@@3V?$dual_state_global@P6AXH@Z@__crt_state_management@@A 000000018001e808     libucrt:signal.obj
 0003:00001810       ?term_action@@3V?$dual_state_global@P6AXH@Z@__crt_state_management@@A 000000018001e810     libucrt:signal.obj
 0003:00001818       ?user_matherr@@3V?$dual_state_global@P6AHPEAU_exception@@@Z@__crt_state_management@@A 000000018001e818     libucrt:matherr.obj
 0003:00001848       ?internal_state@?1??_mbtowc_internal@@9@4U_Mbstatet@@A 000000018001e848     libucrt:mbtowc.obj
 0003:00001850       ?internal_pst@?1??__mbrtoc32_utf8@__crt_mbstring@@YA_KPEA_UPEBD_KPEAU_Mbstatet@@AEAV__crt_cached_ptd_host@@@Z@4U3@A 000000018001e850     libucrt:mbrtoc32.obj
 0003:0000185c       ?__acrt_global_new_mode@@3V?$dual_state_global@J@__crt_state_management@@A 000000018001e85c     libucrt:new_mode.obj
 0003:00001868       ?__acrt_app_type@@3W4_crt_app_type@@A 000000018001e868     libucrt:report_runtime_error.obj
 0003:000018e0       ?aimbot@@3_NA              000000018001e8e0     main.obj
 0005:00000000       ?function_pointers@@3PAPEAXA 0000000180021000     libucrt:winapi_thunks.obj
 0006:00000060       $R000000                   0000000180022060     * linker generated manifest res *
